
09_UART_Interrupt.elf:     file format elf32-littlearm

Sections:
Idx Name          Size      VMA       LMA       File off  Algn
  0 .isr_vector   00000188  08000000  08000000  00001000  2**0
                  CONTENTS, ALLOC, LOAD, READONLY, DATA
  1 .text         000023ac  08000188  08000188  00001188  2**2
                  CONTENTS, ALLOC, LOAD, READONLY, CODE
  2 .rodata       00000048  08002534  08002534  00003534  2**2
                  CONTENTS, ALLOC, LOAD, READONLY, DATA
  3 .ARM.extab    00000000  0800257c  0800257c  00004020  2**0
                  CONTENTS, READONLY
  4 .ARM          00000008  0800257c  0800257c  0000357c  2**2
                  CONTENTS, ALLOC, LOAD, READONLY, DATA
  5 .preinit_array 00000000  08002584  08002584  00004020  2**0
                  CONTENTS, ALLOC, LOAD, DATA
  6 .init_array   00000004  08002584  08002584  00003584  2**2
                  CONTENTS, ALLOC, LOAD, READONLY, DATA
  7 .fini_array   00000004  08002588  08002588  00003588  2**2
                  CONTENTS, ALLOC, LOAD, READONLY, DATA
  8 .data         00000020  20000000  0800258c  00004000  2**2
                  CONTENTS, ALLOC, LOAD, DATA
  9 .bss          000000c4  20000020  080025ac  00004020  2**2
                  ALLOC
 10 ._user_heap_stack 00000604  200000e4  080025ac  000040e4  2**0
                  ALLOC
 11 .ARM.attributes 00000030  00000000  00000000  00004020  2**0
                  CONTENTS, READONLY
 12 .comment      00000043  00000000  00000000  00004050  2**0
                  CONTENTS, READONLY
 13 .debug_frame  000000ac  00000000  00000000  00004094  2**2
                  CONTENTS, READONLY, DEBUGGING, OCTETS

Disassembly of section .text:

08000188 <__do_global_dtors_aux>:
 8000188:	b510      	push	{r4, lr}
 800018a:	4c05      	ldr	r4, [pc, #20]	@ (80001a0 <__do_global_dtors_aux+0x18>)
 800018c:	7823      	ldrb	r3, [r4, #0]
 800018e:	b933      	cbnz	r3, 800019e <__do_global_dtors_aux+0x16>
 8000190:	4b04      	ldr	r3, [pc, #16]	@ (80001a4 <__do_global_dtors_aux+0x1c>)
 8000192:	b113      	cbz	r3, 800019a <__do_global_dtors_aux+0x12>
 8000194:	4804      	ldr	r0, [pc, #16]	@ (80001a8 <__do_global_dtors_aux+0x20>)
 8000196:	f3af 8000 	nop.w
 800019a:	2301      	movs	r3, #1
 800019c:	7023      	strb	r3, [r4, #0]
 800019e:	bd10      	pop	{r4, pc}
 80001a0:	20000020 	.word	0x20000020
 80001a4:	00000000 	.word	0x00000000
 80001a8:	0800251c 	.word	0x0800251c

080001ac <frame_dummy>:
 80001ac:	b508      	push	{r3, lr}
 80001ae:	4b03      	ldr	r3, [pc, #12]	@ (80001bc <frame_dummy+0x10>)
 80001b0:	b11b      	cbz	r3, 80001ba <frame_dummy+0xe>
 80001b2:	4903      	ldr	r1, [pc, #12]	@ (80001c0 <frame_dummy+0x14>)
 80001b4:	4803      	ldr	r0, [pc, #12]	@ (80001c4 <frame_dummy+0x18>)
 80001b6:	f3af 8000 	nop.w
 80001ba:	bd08      	pop	{r3, pc}
 80001bc:	00000000 	.word	0x00000000
 80001c0:	20000024 	.word	0x20000024
 80001c4:	0800251c 	.word	0x0800251c

080001c8 <__aeabi_uldivmod>:
 80001c8:	b953      	cbnz	r3, 80001e0 <__aeabi_uldivmod+0x18>
 80001ca:	b94a      	cbnz	r2, 80001e0 <__aeabi_uldivmod+0x18>
 80001cc:	2900      	cmp	r1, #0
 80001ce:	bf08      	it	eq
 80001d0:	2800      	cmpeq	r0, #0
 80001d2:	bf1c      	itt	ne
 80001d4:	f04f 31ff 	movne.w	r1, #4294967295
 80001d8:	f04f 30ff 	movne.w	r0, #4294967295
 80001dc:	f000 b988 	b.w	80004f0 <__aeabi_idiv0>
 80001e0:	f1ad 0c08 	sub.w	ip, sp, #8
 80001e4:	e96d ce04 	strd	ip, lr, [sp, #-16]!
 80001e8:	f000 f806 	bl	80001f8 <__udivmoddi4>
 80001ec:	f8dd e004 	ldr.w	lr, [sp, #4]
 80001f0:	e9dd 2302 	ldrd	r2, r3, [sp, #8]
 80001f4:	b004      	add	sp, #16
 80001f6:	4770      	bx	lr

080001f8 <__udivmoddi4>:
 80001f8:	e92d 47f0 	stmdb	sp!, {r4, r5, r6, r7, r8, r9, sl, lr}
 80001fc:	9d08      	ldr	r5, [sp, #32]
 80001fe:	468e      	mov	lr, r1
 8000200:	4604      	mov	r4, r0
 8000202:	4688      	mov	r8, r1
 8000204:	2b00      	cmp	r3, #0
 8000206:	d14a      	bne.n	800029e <__udivmoddi4+0xa6>
 8000208:	428a      	cmp	r2, r1
 800020a:	4617      	mov	r7, r2
 800020c:	d962      	bls.n	80002d4 <__udivmoddi4+0xdc>
 800020e:	fab2 f682 	clz	r6, r2
 8000212:	b14e      	cbz	r6, 8000228 <__udivmoddi4+0x30>
 8000214:	f1c6 0320 	rsb	r3, r6, #32
 8000218:	fa01 f806 	lsl.w	r8, r1, r6
 800021c:	fa20 f303 	lsr.w	r3, r0, r3
 8000220:	40b7      	lsls	r7, r6
 8000222:	ea43 0808 	orr.w	r8, r3, r8
 8000226:	40b4      	lsls	r4, r6
 8000228:	ea4f 4e17 	mov.w	lr, r7, lsr #16
 800022c:	fa1f fc87 	uxth.w	ip, r7
 8000230:	fbb8 f1fe 	udiv	r1, r8, lr
 8000234:	0c23      	lsrs	r3, r4, #16
 8000236:	fb0e 8811 	mls	r8, lr, r1, r8
 800023a:	ea43 4308 	orr.w	r3, r3, r8, lsl #16
 800023e:	fb01 f20c 	mul.w	r2, r1, ip
 8000242:	429a      	cmp	r2, r3
 8000244:	d909      	bls.n	800025a <__udivmoddi4+0x62>
 8000246:	18fb      	adds	r3, r7, r3
 8000248:	f101 30ff 	add.w	r0, r1, #4294967295
 800024c:	f080 80ea 	bcs.w	8000424 <__udivmoddi4+0x22c>
 8000250:	429a      	cmp	r2, r3
 8000252:	f240 80e7 	bls.w	8000424 <__udivmoddi4+0x22c>
 8000256:	3902      	subs	r1, #2
 8000258:	443b      	add	r3, r7
 800025a:	1a9a      	subs	r2, r3, r2
 800025c:	b2a3      	uxth	r3, r4
 800025e:	fbb2 f0fe 	udiv	r0, r2, lr
 8000262:	fb0e 2210 	mls	r2, lr, r0, r2
 8000266:	ea43 4302 	orr.w	r3, r3, r2, lsl #16
 800026a:	fb00 fc0c 	mul.w	ip, r0, ip
 800026e:	459c      	cmp	ip, r3
 8000270:	d909      	bls.n	8000286 <__udivmoddi4+0x8e>
 8000272:	18fb      	adds	r3, r7, r3
 8000274:	f100 32ff 	add.w	r2, r0, #4294967295
 8000278:	f080 80d6 	bcs.w	8000428 <__udivmoddi4+0x230>
 800027c:	459c      	cmp	ip, r3
 800027e:	f240 80d3 	bls.w	8000428 <__udivmoddi4+0x230>
 8000282:	443b      	add	r3, r7
 8000284:	3802      	subs	r0, #2
 8000286:	ea40 4001 	orr.w	r0, r0, r1, lsl #16
 800028a:	eba3 030c 	sub.w	r3, r3, ip
 800028e:	2100      	movs	r1, #0
 8000290:	b11d      	cbz	r5, 800029a <__udivmoddi4+0xa2>
 8000292:	40f3      	lsrs	r3, r6
 8000294:	2200      	movs	r2, #0
 8000296:	e9c5 3200 	strd	r3, r2, [r5]
 800029a:	e8bd 87f0 	ldmia.w	sp!, {r4, r5, r6, r7, r8, r9, sl, pc}
 800029e:	428b      	cmp	r3, r1
 80002a0:	d905      	bls.n	80002ae <__udivmoddi4+0xb6>
 80002a2:	b10d      	cbz	r5, 80002a8 <__udivmoddi4+0xb0>
 80002a4:	e9c5 0100 	strd	r0, r1, [r5]
 80002a8:	2100      	movs	r1, #0
 80002aa:	4608      	mov	r0, r1
 80002ac:	e7f5      	b.n	800029a <__udivmoddi4+0xa2>
 80002ae:	fab3 f183 	clz	r1, r3
 80002b2:	2900      	cmp	r1, #0
 80002b4:	d146      	bne.n	8000344 <__udivmoddi4+0x14c>
 80002b6:	4573      	cmp	r3, lr
 80002b8:	d302      	bcc.n	80002c0 <__udivmoddi4+0xc8>
 80002ba:	4282      	cmp	r2, r0
 80002bc:	f200 8105 	bhi.w	80004ca <__udivmoddi4+0x2d2>
 80002c0:	1a84      	subs	r4, r0, r2
 80002c2:	eb6e 0203 	sbc.w	r2, lr, r3
 80002c6:	2001      	movs	r0, #1
 80002c8:	4690      	mov	r8, r2
 80002ca:	2d00      	cmp	r5, #0
 80002cc:	d0e5      	beq.n	800029a <__udivmoddi4+0xa2>
 80002ce:	e9c5 4800 	strd	r4, r8, [r5]
 80002d2:	e7e2      	b.n	800029a <__udivmoddi4+0xa2>
 80002d4:	2a00      	cmp	r2, #0
 80002d6:	f000 8090 	beq.w	80003fa <__udivmoddi4+0x202>
 80002da:	fab2 f682 	clz	r6, r2
 80002de:	2e00      	cmp	r6, #0
 80002e0:	f040 80a4 	bne.w	800042c <__udivmoddi4+0x234>
 80002e4:	1a8a      	subs	r2, r1, r2
 80002e6:	0c03      	lsrs	r3, r0, #16
 80002e8:	ea4f 4e17 	mov.w	lr, r7, lsr #16
 80002ec:	b280      	uxth	r0, r0
 80002ee:	b2bc      	uxth	r4, r7
 80002f0:	2101      	movs	r1, #1
 80002f2:	fbb2 fcfe 	udiv	ip, r2, lr
 80002f6:	fb0e 221c 	mls	r2, lr, ip, r2
 80002fa:	ea43 4302 	orr.w	r3, r3, r2, lsl #16
 80002fe:	fb04 f20c 	mul.w	r2, r4, ip
 8000302:	429a      	cmp	r2, r3
 8000304:	d907      	bls.n	8000316 <__udivmoddi4+0x11e>
 8000306:	18fb      	adds	r3, r7, r3
 8000308:	f10c 38ff 	add.w	r8, ip, #4294967295
 800030c:	d202      	bcs.n	8000314 <__udivmoddi4+0x11c>
 800030e:	429a      	cmp	r2, r3
 8000310:	f200 80e0 	bhi.w	80004d4 <__udivmoddi4+0x2dc>
 8000314:	46c4      	mov	ip, r8
 8000316:	1a9b      	subs	r3, r3, r2
 8000318:	fbb3 f2fe 	udiv	r2, r3, lr
 800031c:	fb0e 3312 	mls	r3, lr, r2, r3
 8000320:	ea40 4303 	orr.w	r3, r0, r3, lsl #16
 8000324:	fb02 f404 	mul.w	r4, r2, r4
 8000328:	429c      	cmp	r4, r3
 800032a:	d907      	bls.n	800033c <__udivmoddi4+0x144>
 800032c:	18fb      	adds	r3, r7, r3
 800032e:	f102 30ff 	add.w	r0, r2, #4294967295
 8000332:	d202      	bcs.n	800033a <__udivmoddi4+0x142>
 8000334:	429c      	cmp	r4, r3
 8000336:	f200 80ca 	bhi.w	80004ce <__udivmoddi4+0x2d6>
 800033a:	4602      	mov	r2, r0
 800033c:	1b1b      	subs	r3, r3, r4
 800033e:	ea42 400c 	orr.w	r0, r2, ip, lsl #16
 8000342:	e7a5      	b.n	8000290 <__udivmoddi4+0x98>
 8000344:	f1c1 0620 	rsb	r6, r1, #32
 8000348:	408b      	lsls	r3, r1
 800034a:	fa22 f706 	lsr.w	r7, r2, r6
 800034e:	431f      	orrs	r7, r3
 8000350:	fa0e f401 	lsl.w	r4, lr, r1
 8000354:	fa20 f306 	lsr.w	r3, r0, r6
 8000358:	fa2e fe06 	lsr.w	lr, lr, r6
 800035c:	ea4f 4917 	mov.w	r9, r7, lsr #16
 8000360:	4323      	orrs	r3, r4
 8000362:	fa00 f801 	lsl.w	r8, r0, r1
 8000366:	fa1f fc87 	uxth.w	ip, r7
 800036a:	fbbe f0f9 	udiv	r0, lr, r9
 800036e:	0c1c      	lsrs	r4, r3, #16
 8000370:	fb09 ee10 	mls	lr, r9, r0, lr
 8000374:	ea44 440e 	orr.w	r4, r4, lr, lsl #16
 8000378:	fb00 fe0c 	mul.w	lr, r0, ip
 800037c:	45a6      	cmp	lr, r4
 800037e:	fa02 f201 	lsl.w	r2, r2, r1
 8000382:	d909      	bls.n	8000398 <__udivmoddi4+0x1a0>
 8000384:	193c      	adds	r4, r7, r4
 8000386:	f100 3aff 	add.w	sl, r0, #4294967295
 800038a:	f080 809c 	bcs.w	80004c6 <__udivmoddi4+0x2ce>
 800038e:	45a6      	cmp	lr, r4
 8000390:	f240 8099 	bls.w	80004c6 <__udivmoddi4+0x2ce>
 8000394:	3802      	subs	r0, #2
 8000396:	443c      	add	r4, r7
 8000398:	eba4 040e 	sub.w	r4, r4, lr
 800039c:	fa1f fe83 	uxth.w	lr, r3
 80003a0:	fbb4 f3f9 	udiv	r3, r4, r9
 80003a4:	fb09 4413 	mls	r4, r9, r3, r4
 80003a8:	ea4e 4404 	orr.w	r4, lr, r4, lsl #16
 80003ac:	fb03 fc0c 	mul.w	ip, r3, ip
 80003b0:	45a4      	cmp	ip, r4
 80003b2:	d908      	bls.n	80003c6 <__udivmoddi4+0x1ce>
 80003b4:	193c      	adds	r4, r7, r4
 80003b6:	f103 3eff 	add.w	lr, r3, #4294967295
 80003ba:	f080 8082 	bcs.w	80004c2 <__udivmoddi4+0x2ca>
 80003be:	45a4      	cmp	ip, r4
 80003c0:	d97f      	bls.n	80004c2 <__udivmoddi4+0x2ca>
 80003c2:	3b02      	subs	r3, #2
 80003c4:	443c      	add	r4, r7
 80003c6:	ea43 4000 	orr.w	r0, r3, r0, lsl #16
 80003ca:	eba4 040c 	sub.w	r4, r4, ip
 80003ce:	fba0 ec02 	umull	lr, ip, r0, r2
 80003d2:	4564      	cmp	r4, ip
 80003d4:	4673      	mov	r3, lr
 80003d6:	46e1      	mov	r9, ip
 80003d8:	d362      	bcc.n	80004a0 <__udivmoddi4+0x2a8>
 80003da:	d05f      	beq.n	800049c <__udivmoddi4+0x2a4>
 80003dc:	b15d      	cbz	r5, 80003f6 <__udivmoddi4+0x1fe>
 80003de:	ebb8 0203 	subs.w	r2, r8, r3
 80003e2:	eb64 0409 	sbc.w	r4, r4, r9
 80003e6:	fa04 f606 	lsl.w	r6, r4, r6
 80003ea:	fa22 f301 	lsr.w	r3, r2, r1
 80003ee:	431e      	orrs	r6, r3
 80003f0:	40cc      	lsrs	r4, r1
 80003f2:	e9c5 6400 	strd	r6, r4, [r5]
 80003f6:	2100      	movs	r1, #0
 80003f8:	e74f      	b.n	800029a <__udivmoddi4+0xa2>
 80003fa:	fbb1 fcf2 	udiv	ip, r1, r2
 80003fe:	0c01      	lsrs	r1, r0, #16
 8000400:	ea41 410e 	orr.w	r1, r1, lr, lsl #16
 8000404:	b280      	uxth	r0, r0
 8000406:	ea40 4201 	orr.w	r2, r0, r1, lsl #16
 800040a:	463b      	mov	r3, r7
 800040c:	4638      	mov	r0, r7
 800040e:	463c      	mov	r4, r7
 8000410:	46b8      	mov	r8, r7
 8000412:	46be      	mov	lr, r7
 8000414:	2620      	movs	r6, #32
 8000416:	fbb1 f1f7 	udiv	r1, r1, r7
 800041a:	eba2 0208 	sub.w	r2, r2, r8
 800041e:	ea41 410c 	orr.w	r1, r1, ip, lsl #16
 8000422:	e766      	b.n	80002f2 <__udivmoddi4+0xfa>
 8000424:	4601      	mov	r1, r0
 8000426:	e718      	b.n	800025a <__udivmoddi4+0x62>
 8000428:	4610      	mov	r0, r2
 800042a:	e72c      	b.n	8000286 <__udivmoddi4+0x8e>
 800042c:	f1c6 0220 	rsb	r2, r6, #32
 8000430:	fa2e f302 	lsr.w	r3, lr, r2
 8000434:	40b7      	lsls	r7, r6
 8000436:	40b1      	lsls	r1, r6
 8000438:	fa20 f202 	lsr.w	r2, r0, r2
 800043c:	ea4f 4e17 	mov.w	lr, r7, lsr #16
 8000440:	430a      	orrs	r2, r1
 8000442:	fbb3 f8fe 	udiv	r8, r3, lr
 8000446:	b2bc      	uxth	r4, r7
 8000448:	fb0e 3318 	mls	r3, lr, r8, r3
 800044c:	0c11      	lsrs	r1, r2, #16
 800044e:	ea41 4103 	orr.w	r1, r1, r3, lsl #16
 8000452:	fb08 f904 	mul.w	r9, r8, r4
 8000456:	40b0      	lsls	r0, r6
 8000458:	4589      	cmp	r9, r1
 800045a:	ea4f 4310 	mov.w	r3, r0, lsr #16
 800045e:	b280      	uxth	r0, r0
 8000460:	d93e      	bls.n	80004e0 <__udivmoddi4+0x2e8>
 8000462:	1879      	adds	r1, r7, r1
 8000464:	f108 3cff 	add.w	ip, r8, #4294967295
 8000468:	d201      	bcs.n	800046e <__udivmoddi4+0x276>
 800046a:	4589      	cmp	r9, r1
 800046c:	d81f      	bhi.n	80004ae <__udivmoddi4+0x2b6>
 800046e:	eba1 0109 	sub.w	r1, r1, r9
 8000472:	fbb1 f9fe 	udiv	r9, r1, lr
 8000476:	fb09 f804 	mul.w	r8, r9, r4
 800047a:	fb0e 1119 	mls	r1, lr, r9, r1
 800047e:	b292      	uxth	r2, r2
 8000480:	ea42 4201 	orr.w	r2, r2, r1, lsl #16
 8000484:	4542      	cmp	r2, r8
 8000486:	d229      	bcs.n	80004dc <__udivmoddi4+0x2e4>
 8000488:	18ba      	adds	r2, r7, r2
 800048a:	f109 31ff 	add.w	r1, r9, #4294967295
 800048e:	d2c4      	bcs.n	800041a <__udivmoddi4+0x222>
 8000490:	4542      	cmp	r2, r8
 8000492:	d2c2      	bcs.n	800041a <__udivmoddi4+0x222>
 8000494:	f1a9 0102 	sub.w	r1, r9, #2
 8000498:	443a      	add	r2, r7
 800049a:	e7be      	b.n	800041a <__udivmoddi4+0x222>
 800049c:	45f0      	cmp	r8, lr
 800049e:	d29d      	bcs.n	80003dc <__udivmoddi4+0x1e4>
 80004a0:	ebbe 0302 	subs.w	r3, lr, r2
 80004a4:	eb6c 0c07 	sbc.w	ip, ip, r7
 80004a8:	3801      	subs	r0, #1
 80004aa:	46e1      	mov	r9, ip
 80004ac:	e796      	b.n	80003dc <__udivmoddi4+0x1e4>
 80004ae:	eba7 0909 	sub.w	r9, r7, r9
 80004b2:	4449      	add	r1, r9
 80004b4:	f1a8 0c02 	sub.w	ip, r8, #2
 80004b8:	fbb1 f9fe 	udiv	r9, r1, lr
 80004bc:	fb09 f804 	mul.w	r8, r9, r4
 80004c0:	e7db      	b.n	800047a <__udivmoddi4+0x282>
 80004c2:	4673      	mov	r3, lr
 80004c4:	e77f      	b.n	80003c6 <__udivmoddi4+0x1ce>
 80004c6:	4650      	mov	r0, sl
 80004c8:	e766      	b.n	8000398 <__udivmoddi4+0x1a0>
 80004ca:	4608      	mov	r0, r1
 80004cc:	e6fd      	b.n	80002ca <__udivmoddi4+0xd2>
 80004ce:	443b      	add	r3, r7
 80004d0:	3a02      	subs	r2, #2
 80004d2:	e733      	b.n	800033c <__udivmoddi4+0x144>
 80004d4:	f1ac 0c02 	sub.w	ip, ip, #2
 80004d8:	443b      	add	r3, r7
 80004da:	e71c      	b.n	8000316 <__udivmoddi4+0x11e>
 80004dc:	4649      	mov	r1, r9
 80004de:	e79c      	b.n	800041a <__udivmoddi4+0x222>
 80004e0:	eba1 0109 	sub.w	r1, r1, r9
 80004e4:	46c4      	mov	ip, r8
 80004e6:	fbb1 f9fe 	udiv	r9, r1, lr
 80004ea:	fb09 f804 	mul.w	r8, r9, r4
 80004ee:	e7c4      	b.n	800047a <__udivmoddi4+0x282>

080004f0 <__aeabi_idiv0>:
 80004f0:	4770      	bx	lr
 80004f2:	bf00      	nop

080004f4 <HAL_UART_TxCpltCallback>:
 80004f4:	4a02      	ldr	r2, [pc, #8]	@ (8000500 <HAL_UART_TxCpltCallback+0xc>)
 80004f6:	6813      	ldr	r3, [r2, #0]
 80004f8:	3301      	adds	r3, #1
 80004fa:	6013      	str	r3, [r2, #0]
 80004fc:	4770      	bx	lr
 80004fe:	bf00      	nop
 8000500:	20000054 	.word	0x20000054

08000504 <HAL_UART_RxCpltCallback>:
 8000504:	6802      	ldr	r2, [r0, #0]
 8000506:	4b06      	ldr	r3, [pc, #24]	@ (8000520 <HAL_UART_RxCpltCallback+0x1c>)
 8000508:	429a      	cmp	r2, r3
 800050a:	d108      	bne.n	800051e <HAL_UART_RxCpltCallback+0x1a>
 800050c:	4a05      	ldr	r2, [pc, #20]	@ (8000524 <HAL_UART_RxCpltCallback+0x20>)
 800050e:	4906      	ldr	r1, [pc, #24]	@ (8000528 <HAL_UART_RxCpltCallback+0x24>)
 8000510:	6813      	ldr	r3, [r2, #0]
 8000512:	4806      	ldr	r0, [pc, #24]	@ (800052c <HAL_UART_RxCpltCallback+0x28>)
 8000514:	3301      	adds	r3, #1
 8000516:	6013      	str	r3, [r2, #0]
 8000518:	2201      	movs	r2, #1
 800051a:	f001 bfaf 	b.w	800247c <HAL_UART_Receive_IT>
 800051e:	4770      	bx	lr
 8000520:	40004400 	.word	0x40004400
 8000524:	20000050 	.word	0x20000050
 8000528:	2000003c 	.word	0x2000003c
 800052c:	20000058 	.word	0x20000058

08000530 <SystemClock_Config>:
 8000530:	b500      	push	{lr}
 8000532:	b097      	sub	sp, #92	@ 0x5c
 8000534:	2244      	movs	r2, #68	@ 0x44
 8000536:	2100      	movs	r1, #0
 8000538:	a805      	add	r0, sp, #20
 800053a:	f001 ffc2 	bl	80024c2 <memset>
 800053e:	2214      	movs	r2, #20
 8000540:	2100      	movs	r1, #0
 8000542:	4668      	mov	r0, sp
 8000544:	f001 ffbd 	bl	80024c2 <memset>
 8000548:	f44f 7000 	mov.w	r0, #512	@ 0x200
 800054c:	f000 fb40 	bl	8000bd0 <HAL_PWREx_ControlVoltageScaling>
 8000550:	b108      	cbz	r0, 8000556 <SystemClock_Config+0x26>
 8000552:	b672      	cpsid	i
 8000554:	e7fe      	b.n	8000554 <SystemClock_Config+0x24>
 8000556:	2210      	movs	r2, #16
 8000558:	f44f 7180 	mov.w	r1, #256	@ 0x100
 800055c:	2001      	movs	r0, #1
 800055e:	e9cd 1208 	strd	r1, r2, [sp, #32]
 8000562:	220a      	movs	r2, #10
 8000564:	2302      	movs	r3, #2
 8000566:	e9cd 0211 	strd	r0, r2, [sp, #68]	@ 0x44
 800056a:	2207      	movs	r2, #7
 800056c:	a805      	add	r0, sp, #20
 800056e:	e9cd 330f 	strd	r3, r3, [sp, #60]	@ 0x3c
 8000572:	e9cd 2313 	strd	r2, r3, [sp, #76]	@ 0x4c
 8000576:	9305      	str	r3, [sp, #20]
 8000578:	9315      	str	r3, [sp, #84]	@ 0x54
 800057a:	f000 fbeb 	bl	8000d54 <HAL_RCC_OscConfig>
 800057e:	b108      	cbz	r0, 8000584 <SystemClock_Config+0x54>
 8000580:	b672      	cpsid	i
 8000582:	e7fe      	b.n	8000582 <SystemClock_Config+0x52>
 8000584:	e9cd 0002 	strd	r0, r0, [sp, #8]
 8000588:	220f      	movs	r2, #15
 800058a:	2303      	movs	r3, #3
 800058c:	9004      	str	r0, [sp, #16]
 800058e:	2104      	movs	r1, #4
 8000590:	4668      	mov	r0, sp
 8000592:	e9cd 2300 	strd	r2, r3, [sp]
 8000596:	f000 fe5b 	bl	8001250 <HAL_RCC_ClockConfig>
 800059a:	b108      	cbz	r0, 80005a0 <SystemClock_Config+0x70>
 800059c:	b672      	cpsid	i
 800059e:	e7fe      	b.n	800059e <SystemClock_Config+0x6e>
 80005a0:	b017      	add	sp, #92	@ 0x5c
 80005a2:	f85d fb04 	ldr.w	pc, [sp], #4
	...

080005a8 <main>:
 80005a8:	b500      	push	{lr}
 80005aa:	b08b      	sub	sp, #44	@ 0x2c
 80005ac:	4c3c      	ldr	r4, [pc, #240]	@ (80006a0 <main+0xf8>)
 80005ae:	f000 f953 	bl	8000858 <HAL_Init>
 80005b2:	f7ff ffbd 	bl	8000530 <SystemClock_Config>
 80005b6:	2214      	movs	r2, #20
 80005b8:	2100      	movs	r1, #0
 80005ba:	eb0d 0002 	add.w	r0, sp, r2
 80005be:	f001 ff80 	bl	80024c2 <memset>
 80005c2:	6ce3      	ldr	r3, [r4, #76]	@ 0x4c
 80005c4:	f043 0304 	orr.w	r3, r3, #4
 80005c8:	64e3      	str	r3, [r4, #76]	@ 0x4c
 80005ca:	6ce3      	ldr	r3, [r4, #76]	@ 0x4c
 80005cc:	f003 0304 	and.w	r3, r3, #4
 80005d0:	9301      	str	r3, [sp, #4]
 80005d2:	9b01      	ldr	r3, [sp, #4]
 80005d4:	6ce3      	ldr	r3, [r4, #76]	@ 0x4c
 80005d6:	f043 0380 	orr.w	r3, r3, #128	@ 0x80
 80005da:	64e3      	str	r3, [r4, #76]	@ 0x4c
 80005dc:	6ce3      	ldr	r3, [r4, #76]	@ 0x4c
 80005de:	f003 0380 	and.w	r3, r3, #128	@ 0x80
 80005e2:	9302      	str	r3, [sp, #8]
 80005e4:	9b02      	ldr	r3, [sp, #8]
 80005e6:	6ce3      	ldr	r3, [r4, #76]	@ 0x4c
 80005e8:	f043 0301 	orr.w	r3, r3, #1
 80005ec:	64e3      	str	r3, [r4, #76]	@ 0x4c
 80005ee:	6ce3      	ldr	r3, [r4, #76]	@ 0x4c
 80005f0:	f003 0301 	and.w	r3, r3, #1
 80005f4:	9303      	str	r3, [sp, #12]
 80005f6:	9b03      	ldr	r3, [sp, #12]
 80005f8:	6ce3      	ldr	r3, [r4, #76]	@ 0x4c
 80005fa:	f043 0302 	orr.w	r3, r3, #2
 80005fe:	64e3      	str	r3, [r4, #76]	@ 0x4c
 8000600:	6ce3      	ldr	r3, [r4, #76]	@ 0x4c
 8000602:	f003 0302 	and.w	r3, r3, #2
 8000606:	9304      	str	r3, [sp, #16]
 8000608:	2200      	movs	r2, #0
 800060a:	2120      	movs	r1, #32
 800060c:	f04f 4090 	mov.w	r0, #1207959552	@ 0x48000000
 8000610:	2500      	movs	r5, #0
 8000612:	9b04      	ldr	r3, [sp, #16]
 8000614:	f000 face 	bl	8000bb4 <HAL_GPIO_WritePin>
 8000618:	f44f 5200 	mov.w	r2, #8192	@ 0x2000
 800061c:	f44f 1304 	mov.w	r3, #2162688	@ 0x210000
 8000620:	4820      	ldr	r0, [pc, #128]	@ (80006a4 <main+0xfc>)
 8000622:	9507      	str	r5, [sp, #28]
 8000624:	a905      	add	r1, sp, #20
 8000626:	e9cd 2305 	strd	r2, r3, [sp, #20]
 800062a:	f000 f9e9 	bl	8000a00 <HAL_GPIO_Init>
 800062e:	2301      	movs	r3, #1
 8000630:	2120      	movs	r1, #32
 8000632:	e9cd 1305 	strd	r1, r3, [sp, #20]
 8000636:	f04f 4090 	mov.w	r0, #1207959552	@ 0x48000000
 800063a:	a905      	add	r1, sp, #20
 800063c:	e9cd 5507 	strd	r5, r5, [sp, #28]
 8000640:	f000 f9de 	bl	8000a00 <HAL_GPIO_Init>
 8000644:	6da3      	ldr	r3, [r4, #88]	@ 0x58
 8000646:	4818      	ldr	r0, [pc, #96]	@ (80006a8 <main+0x100>)
 8000648:	f443 3300 	orr.w	r3, r3, #131072	@ 0x20000
 800064c:	65a3      	str	r3, [r4, #88]	@ 0x58
 800064e:	6da3      	ldr	r3, [r4, #88]	@ 0x58
 8000650:	4c16      	ldr	r4, [pc, #88]	@ (80006ac <main+0x104>)
 8000652:	f403 3300 	and.w	r3, r3, #131072	@ 0x20000
 8000656:	9305      	str	r3, [sp, #20]
 8000658:	9b05      	ldr	r3, [sp, #20]
 800065a:	6125      	str	r5, [r4, #16]
 800065c:	f44f 33e1 	mov.w	r3, #115200	@ 0x1c200
 8000660:	e9c4 0300 	strd	r0, r3, [r4]
 8000664:	230c      	movs	r3, #12
 8000666:	4620      	mov	r0, r4
 8000668:	e9c4 5502 	strd	r5, r5, [r4, #8]
 800066c:	e9c4 3505 	strd	r3, r5, [r4, #20]
 8000670:	e9c4 5507 	strd	r5, r5, [r4, #28]
 8000674:	6265      	str	r5, [r4, #36]	@ 0x24
 8000676:	f001 fe76 	bl	8002366 <HAL_UART_Init>
 800067a:	b108      	cbz	r0, 8000680 <main+0xd8>
 800067c:	b672      	cpsid	i
 800067e:	e7fe      	b.n	800067e <main+0xd6>
 8000680:	4b0b      	ldr	r3, [pc, #44]	@ (80006b0 <main+0x108>)
 8000682:	f883 0326 	strb.w	r0, [r3, #806]	@ 0x326
 8000686:	2240      	movs	r2, #64	@ 0x40
 8000688:	605a      	str	r2, [r3, #4]
 800068a:	490a      	ldr	r1, [pc, #40]	@ (80006b4 <main+0x10c>)
 800068c:	2212      	movs	r2, #18
 800068e:	4620      	mov	r0, r4
 8000690:	f001 fa12 	bl	8001ab8 <HAL_UART_Transmit_IT>
 8000694:	4908      	ldr	r1, [pc, #32]	@ (80006b8 <main+0x110>)
 8000696:	2212      	movs	r2, #18
 8000698:	4620      	mov	r0, r4
 800069a:	f001 feef 	bl	800247c <HAL_UART_Receive_IT>
 800069e:	e7fe      	b.n	800069e <main+0xf6>
 80006a0:	40021000 	.word	0x40021000
 80006a4:	48000800 	.word	0x48000800
 80006a8:	40004400 	.word	0x40004400
 80006ac:	20000058 	.word	0x20000058
 80006b0:	e000e100 	.word	0xe000e100
 80006b4:	20000000 	.word	0x20000000
 80006b8:	2000003c 	.word	0x2000003c

080006bc <Error_Handler>:
 80006bc:	b672      	cpsid	i
 80006be:	e7fe      	b.n	80006be <Error_Handler+0x2>

080006c0 <HAL_MspInit>:
 80006c0:	4b0a      	ldr	r3, [pc, #40]	@ (80006ec <HAL_MspInit+0x2c>)
 80006c2:	6e1a      	ldr	r2, [r3, #96]	@ 0x60
 80006c4:	f042 0201 	orr.w	r2, r2, #1
 80006c8:	b082      	sub	sp, #8
 80006ca:	661a      	str	r2, [r3, #96]	@ 0x60
 80006cc:	6e1a      	ldr	r2, [r3, #96]	@ 0x60
 80006ce:	f002 0201 	and.w	r2, r2, #1
 80006d2:	9200      	str	r2, [sp, #0]
 80006d4:	9a00      	ldr	r2, [sp, #0]
 80006d6:	6d9a      	ldr	r2, [r3, #88]	@ 0x58
 80006d8:	f042 5280 	orr.w	r2, r2, #268435456	@ 0x10000000
 80006dc:	659a      	str	r2, [r3, #88]	@ 0x58
 80006de:	6d9b      	ldr	r3, [r3, #88]	@ 0x58
 80006e0:	f003 5380 	and.w	r3, r3, #268435456	@ 0x10000000
 80006e4:	9301      	str	r3, [sp, #4]
 80006e6:	9b01      	ldr	r3, [sp, #4]
 80006e8:	b002      	add	sp, #8
 80006ea:	4770      	bx	lr
 80006ec:	40021000 	.word	0x40021000

080006f0 <HAL_UART_MspInit>:
 80006f0:	b510      	push	{r4, lr}
 80006f2:	b0aa      	sub	sp, #168	@ 0xa8
 80006f4:	4604      	mov	r4, r0
 80006f6:	2214      	movs	r2, #20
 80006f8:	2100      	movs	r1, #0
 80006fa:	a803      	add	r0, sp, #12
 80006fc:	f001 fee1 	bl	80024c2 <memset>
 8000700:	2288      	movs	r2, #136	@ 0x88
 8000702:	2100      	movs	r1, #0
 8000704:	a808      	add	r0, sp, #32
 8000706:	f001 fedc 	bl	80024c2 <memset>
 800070a:	6822      	ldr	r2, [r4, #0]
 800070c:	4b1b      	ldr	r3, [pc, #108]	@ (800077c <HAL_UART_MspInit+0x8c>)
 800070e:	429a      	cmp	r2, r3
 8000710:	d131      	bne.n	8000776 <HAL_UART_MspInit+0x86>
 8000712:	2302      	movs	r3, #2
 8000714:	a808      	add	r0, sp, #32
 8000716:	9308      	str	r3, [sp, #32]
 8000718:	f000 ff68 	bl	80015ec <HAL_RCCEx_PeriphCLKConfig>
 800071c:	b108      	cbz	r0, 8000722 <HAL_UART_MspInit+0x32>
 800071e:	f7ff ffcd 	bl	80006bc <Error_Handler>
 8000722:	4b17      	ldr	r3, [pc, #92]	@ (8000780 <HAL_UART_MspInit+0x90>)
 8000724:	6d9a      	ldr	r2, [r3, #88]	@ 0x58
 8000726:	f442 3200 	orr.w	r2, r2, #131072	@ 0x20000
 800072a:	659a      	str	r2, [r3, #88]	@ 0x58
 800072c:	6d9a      	ldr	r2, [r3, #88]	@ 0x58
 800072e:	f402 3200 	and.w	r2, r2, #131072	@ 0x20000
 8000732:	9201      	str	r2, [sp, #4]
 8000734:	9a01      	ldr	r2, [sp, #4]
 8000736:	6cda      	ldr	r2, [r3, #76]	@ 0x4c
 8000738:	f042 0201 	orr.w	r2, r2, #1
 800073c:	64da      	str	r2, [r3, #76]	@ 0x4c
 800073e:	6cdb      	ldr	r3, [r3, #76]	@ 0x4c
 8000740:	f003 0301 	and.w	r3, r3, #1
 8000744:	9302      	str	r3, [sp, #8]
 8000746:	220c      	movs	r2, #12
 8000748:	9b02      	ldr	r3, [sp, #8]
 800074a:	2302      	movs	r3, #2
 800074c:	e9cd 2303 	strd	r2, r3, [sp, #12]
 8000750:	2400      	movs	r4, #0
 8000752:	2303      	movs	r3, #3
 8000754:	e9cd 4305 	strd	r4, r3, [sp, #20]
 8000758:	a903      	add	r1, sp, #12
 800075a:	2307      	movs	r3, #7
 800075c:	f04f 4090 	mov.w	r0, #1207959552	@ 0x48000000
 8000760:	9307      	str	r3, [sp, #28]
 8000762:	f000 f94d 	bl	8000a00 <HAL_GPIO_Init>
 8000766:	2026      	movs	r0, #38	@ 0x26
 8000768:	4622      	mov	r2, r4
 800076a:	4621      	mov	r1, r4
 800076c:	f000 f8ae 	bl	80008cc <HAL_NVIC_SetPriority>
 8000770:	2026      	movs	r0, #38	@ 0x26
 8000772:	f000 f8dd 	bl	8000930 <HAL_NVIC_EnableIRQ>
 8000776:	b02a      	add	sp, #168	@ 0xa8
 8000778:	bd10      	pop	{r4, pc}
 800077a:	bf00      	nop
 800077c:	40004400 	.word	0x40004400
 8000780:	40021000 	.word	0x40021000

08000784 <NMI_Handler>:
 8000784:	e7fe      	b.n	8000784 <NMI_Handler>

08000786 <HardFault_Handler>:
 8000786:	e7fe      	b.n	8000786 <HardFault_Handler>

08000788 <MemManage_Handler>:
 8000788:	e7fe      	b.n	8000788 <MemManage_Handler>

0800078a <BusFault_Handler>:
 800078a:	e7fe      	b.n	800078a <BusFault_Handler>

0800078c <UsageFault_Handler>:
 800078c:	e7fe      	b.n	800078c <UsageFault_Handler>

0800078e <SVC_Handler>:
 800078e:	4770      	bx	lr

08000790 <DebugMon_Handler>:
 8000790:	4770      	bx	lr

08000792 <PendSV_Handler>:
 8000792:	4770      	bx	lr

08000794 <SysTick_Handler>:
 8000794:	f000 b876 	b.w	8000884 <HAL_IncTick>

08000798 <USART2_IRQHandler>:
 8000798:	4801      	ldr	r0, [pc, #4]	@ (80007a0 <USART2_IRQHandler+0x8>)
 800079a:	f001 b9c9 	b.w	8001b30 <HAL_UART_IRQHandler>
 800079e:	bf00      	nop
 80007a0:	20000058 	.word	0x20000058

080007a4 <SystemInit>:
 80007a4:	4a03      	ldr	r2, [pc, #12]	@ (80007b4 <SystemInit+0x10>)
 80007a6:	f8d2 3088 	ldr.w	r3, [r2, #136]	@ 0x88
 80007aa:	f443 0370 	orr.w	r3, r3, #15728640	@ 0xf00000
 80007ae:	f8c2 3088 	str.w	r3, [r2, #136]	@ 0x88
 80007b2:	4770      	bx	lr
 80007b4:	e000ed00 	.word	0xe000ed00

080007b8 <Reset_Handler>:
 80007b8:	f8df d034 	ldr.w	sp, [pc, #52]	@ 80007f0 <LoopForever+0x2>
 80007bc:	f7ff fff2 	bl	80007a4 <SystemInit>
 80007c0:	480c      	ldr	r0, [pc, #48]	@ (80007f4 <LoopForever+0x6>)
 80007c2:	490d      	ldr	r1, [pc, #52]	@ (80007f8 <LoopForever+0xa>)
 80007c4:	4a0d      	ldr	r2, [pc, #52]	@ (80007fc <LoopForever+0xe>)
 80007c6:	2300      	movs	r3, #0
 80007c8:	e002      	b.n	80007d0 <LoopCopyDataInit>

080007ca <CopyDataInit>:
 80007ca:	58d4      	ldr	r4, [r2, r3]
 80007cc:	50c4      	str	r4, [r0, r3]
 80007ce:	3304      	adds	r3, #4

080007d0 <LoopCopyDataInit>:
 80007d0:	18c4      	adds	r4, r0, r3
 80007d2:	428c      	cmp	r4, r1
 80007d4:	d3f9      	bcc.n	80007ca <CopyDataInit>
 80007d6:	4a0a      	ldr	r2, [pc, #40]	@ (8000800 <LoopForever+0x12>)
 80007d8:	4c0a      	ldr	r4, [pc, #40]	@ (8000804 <LoopForever+0x16>)
 80007da:	2300      	movs	r3, #0
 80007dc:	e001      	b.n	80007e2 <LoopFillZerobss>

080007de <FillZerobss>:
 80007de:	6013      	str	r3, [r2, #0]
 80007e0:	3204      	adds	r2, #4

080007e2 <LoopFillZerobss>:
 80007e2:	42a2      	cmp	r2, r4
 80007e4:	d3fb      	bcc.n	80007de <FillZerobss>
 80007e6:	f001 fe75 	bl	80024d4 <__libc_init_array>
 80007ea:	f7ff fedd 	bl	80005a8 <main>

080007ee <LoopForever>:
 80007ee:	e7fe      	b.n	80007ee <LoopForever>
 80007f0:	20018000 	.word	0x20018000
 80007f4:	20000000 	.word	0x20000000
 80007f8:	20000020 	.word	0x20000020
 80007fc:	0800258c 	.word	0x0800258c
 8000800:	20000020 	.word	0x20000020
 8000804:	200000e4 	.word	0x200000e4

08000808 <ADC1_2_IRQHandler>:
 8000808:	e7fe      	b.n	8000808 <ADC1_2_IRQHandler>
	...

0800080c <HAL_InitTick>:
 800080c:	b538      	push	{r3, r4, r5, lr}
 800080e:	4b0f      	ldr	r3, [pc, #60]	@ (800084c <HAL_InitTick+0x40>)
 8000810:	781a      	ldrb	r2, [r3, #0]
 8000812:	4605      	mov	r5, r0
 8000814:	b90a      	cbnz	r2, 800081a <HAL_InitTick+0xe>
 8000816:	2001      	movs	r0, #1
 8000818:	bd38      	pop	{r3, r4, r5, pc}
 800081a:	f44f 737a 	mov.w	r3, #1000	@ 0x3e8
 800081e:	fbb3 f3f2 	udiv	r3, r3, r2
 8000822:	4a0b      	ldr	r2, [pc, #44]	@ (8000850 <HAL_InitTick+0x44>)
 8000824:	6810      	ldr	r0, [r2, #0]
 8000826:	fbb0 f0f3 	udiv	r0, r0, r3
 800082a:	f000 f88f 	bl	800094c <HAL_SYSTICK_Config>
 800082e:	4604      	mov	r4, r0
 8000830:	2800      	cmp	r0, #0
 8000832:	d1f0      	bne.n	8000816 <HAL_InitTick+0xa>
 8000834:	2d0f      	cmp	r5, #15
 8000836:	d8ee      	bhi.n	8000816 <HAL_InitTick+0xa>
 8000838:	4602      	mov	r2, r0
 800083a:	4629      	mov	r1, r5
 800083c:	f04f 30ff 	mov.w	r0, #4294967295
 8000840:	f000 f844 	bl	80008cc <HAL_NVIC_SetPriority>
 8000844:	4b03      	ldr	r3, [pc, #12]	@ (8000854 <HAL_InitTick+0x48>)
 8000846:	4620      	mov	r0, r4
 8000848:	601d      	str	r5, [r3, #0]
 800084a:	e7e5      	b.n	8000818 <HAL_InitTick+0xc>
 800084c:	20000018 	.word	0x20000018
 8000850:	20000014 	.word	0x20000014
 8000854:	2000001c 	.word	0x2000001c

08000858 <HAL_Init>:
 8000858:	4a09      	ldr	r2, [pc, #36]	@ (8000880 <HAL_Init+0x28>)
 800085a:	6813      	ldr	r3, [r2, #0]
 800085c:	f443 7380 	orr.w	r3, r3, #256	@ 0x100
 8000860:	b510      	push	{r4, lr}
 8000862:	2003      	movs	r0, #3
 8000864:	6013      	str	r3, [r2, #0]
 8000866:	f000 f81f 	bl	80008a8 <HAL_NVIC_SetPriorityGrouping>
 800086a:	2000      	movs	r0, #0
 800086c:	f7ff ffce 	bl	800080c <HAL_InitTick>
 8000870:	4604      	mov	r4, r0
 8000872:	b918      	cbnz	r0, 800087c <HAL_Init+0x24>
 8000874:	f7ff ff24 	bl	80006c0 <HAL_MspInit>
 8000878:	4620      	mov	r0, r4
 800087a:	bd10      	pop	{r4, pc}
 800087c:	2401      	movs	r4, #1
 800087e:	e7fb      	b.n	8000878 <HAL_Init+0x20>
 8000880:	40022000 	.word	0x40022000

08000884 <HAL_IncTick>:
 8000884:	4a03      	ldr	r2, [pc, #12]	@ (8000894 <HAL_IncTick+0x10>)
 8000886:	4b04      	ldr	r3, [pc, #16]	@ (8000898 <HAL_IncTick+0x14>)
 8000888:	6811      	ldr	r1, [r2, #0]
 800088a:	781b      	ldrb	r3, [r3, #0]
 800088c:	440b      	add	r3, r1
 800088e:	6013      	str	r3, [r2, #0]
 8000890:	4770      	bx	lr
 8000892:	bf00      	nop
 8000894:	200000e0 	.word	0x200000e0
 8000898:	20000018 	.word	0x20000018

0800089c <HAL_GetTick>:
 800089c:	4b01      	ldr	r3, [pc, #4]	@ (80008a4 <HAL_GetTick+0x8>)
 800089e:	6818      	ldr	r0, [r3, #0]
 80008a0:	4770      	bx	lr
 80008a2:	bf00      	nop
 80008a4:	200000e0 	.word	0x200000e0

080008a8 <HAL_NVIC_SetPriorityGrouping>:
 80008a8:	4907      	ldr	r1, [pc, #28]	@ (80008c8 <HAL_NVIC_SetPriorityGrouping+0x20>)
 80008aa:	68ca      	ldr	r2, [r1, #12]
 80008ac:	f422 62e0 	bic.w	r2, r2, #1792	@ 0x700
 80008b0:	0203      	lsls	r3, r0, #8
 80008b2:	0412      	lsls	r2, r2, #16
 80008b4:	f403 63e0 	and.w	r3, r3, #1792	@ 0x700
 80008b8:	0c12      	lsrs	r2, r2, #16
 80008ba:	4313      	orrs	r3, r2
 80008bc:	f043 63bf 	orr.w	r3, r3, #100139008	@ 0x5f80000
 80008c0:	f443 3300 	orr.w	r3, r3, #131072	@ 0x20000
 80008c4:	60cb      	str	r3, [r1, #12]
 80008c6:	4770      	bx	lr
 80008c8:	e000ed00 	.word	0xe000ed00

080008cc <HAL_NVIC_SetPriority>:
 80008cc:	4b16      	ldr	r3, [pc, #88]	@ (8000928 <HAL_NVIC_SetPriority+0x5c>)
 80008ce:	b530      	push	{r4, r5, lr}
 80008d0:	68dc      	ldr	r4, [r3, #12]
 80008d2:	f3c4 2402 	ubfx	r4, r4, #8, #3
 80008d6:	f1c4 0307 	rsb	r3, r4, #7
 80008da:	1d25      	adds	r5, r4, #4
 80008dc:	2b04      	cmp	r3, #4
 80008de:	bf28      	it	cs
 80008e0:	2304      	movcs	r3, #4
 80008e2:	2d06      	cmp	r5, #6
 80008e4:	f04f 35ff 	mov.w	r5, #4294967295
 80008e8:	bf8c      	ite	hi
 80008ea:	3c03      	subhi	r4, #3
 80008ec:	2400      	movls	r4, #0
 80008ee:	fa05 f303 	lsl.w	r3, r5, r3
 80008f2:	ea21 0303 	bic.w	r3, r1, r3
 80008f6:	40a5      	lsls	r5, r4
 80008f8:	ea22 0205 	bic.w	r2, r2, r5
 80008fc:	40a3      	lsls	r3, r4
 80008fe:	2800      	cmp	r0, #0
 8000900:	ea43 0302 	orr.w	r3, r3, r2
 8000904:	bfac      	ite	ge
 8000906:	f100 4060 	addge.w	r0, r0, #3758096384	@ 0xe0000000
 800090a:	4a08      	ldrlt	r2, [pc, #32]	@ (800092c <HAL_NVIC_SetPriority+0x60>)
 800090c:	ea4f 1303 	mov.w	r3, r3, lsl #4
 8000910:	bfb8      	it	lt
 8000912:	f000 000f 	andlt.w	r0, r0, #15
 8000916:	b2db      	uxtb	r3, r3
 8000918:	bfaa      	itet	ge
 800091a:	f500 4061 	addge.w	r0, r0, #57600	@ 0xe100
 800091e:	5413      	strblt	r3, [r2, r0]
 8000920:	f880 3300 	strbge.w	r3, [r0, #768]	@ 0x300
 8000924:	bd30      	pop	{r4, r5, pc}
 8000926:	bf00      	nop
 8000928:	e000ed00 	.word	0xe000ed00
 800092c:	e000ed14 	.word	0xe000ed14

08000930 <HAL_NVIC_EnableIRQ>:
 8000930:	2800      	cmp	r0, #0
 8000932:	db07      	blt.n	8000944 <HAL_NVIC_EnableIRQ+0x14>
 8000934:	4a04      	ldr	r2, [pc, #16]	@ (8000948 <HAL_NVIC_EnableIRQ+0x18>)
 8000936:	0941      	lsrs	r1, r0, #5
 8000938:	2301      	movs	r3, #1
 800093a:	f000 001f 	and.w	r0, r0, #31
 800093e:	4083      	lsls	r3, r0
 8000940:	f842 3021 	str.w	r3, [r2, r1, lsl #2]
 8000944:	4770      	bx	lr
 8000946:	bf00      	nop
 8000948:	e000e100 	.word	0xe000e100

0800094c <HAL_SYSTICK_Config>:
 800094c:	3801      	subs	r0, #1
 800094e:	f1b0 7f80 	cmp.w	r0, #16777216	@ 0x1000000
 8000952:	d20b      	bcs.n	800096c <HAL_SYSTICK_Config+0x20>
 8000954:	f04f 23e0 	mov.w	r3, #3758153728	@ 0xe000e000
 8000958:	4a05      	ldr	r2, [pc, #20]	@ (8000970 <HAL_SYSTICK_Config+0x24>)
 800095a:	6158      	str	r0, [r3, #20]
 800095c:	21f0      	movs	r1, #240	@ 0xf0
 800095e:	f882 1023 	strb.w	r1, [r2, #35]	@ 0x23
 8000962:	2000      	movs	r0, #0
 8000964:	2207      	movs	r2, #7
 8000966:	6198      	str	r0, [r3, #24]
 8000968:	611a      	str	r2, [r3, #16]
 800096a:	4770      	bx	lr
 800096c:	2001      	movs	r0, #1
 800096e:	4770      	bx	lr
 8000970:	e000ed00 	.word	0xe000ed00

08000974 <HAL_DMA_Abort>:
 8000974:	f890 2025 	ldrb.w	r2, [r0, #37]	@ 0x25
 8000978:	2a02      	cmp	r2, #2
 800097a:	4603      	mov	r3, r0
 800097c:	d006      	beq.n	800098c <HAL_DMA_Abort+0x18>
 800097e:	2204      	movs	r2, #4
 8000980:	63c2      	str	r2, [r0, #60]	@ 0x3c
 8000982:	2001      	movs	r0, #1
 8000984:	2200      	movs	r2, #0
 8000986:	f883 2024 	strb.w	r2, [r3, #36]	@ 0x24
 800098a:	4770      	bx	lr
 800098c:	6802      	ldr	r2, [r0, #0]
 800098e:	6811      	ldr	r1, [r2, #0]
 8000990:	f021 010e 	bic.w	r1, r1, #14
 8000994:	6011      	str	r1, [r2, #0]
 8000996:	6811      	ldr	r1, [r2, #0]
 8000998:	f021 0101 	bic.w	r1, r1, #1
 800099c:	6011      	str	r1, [r2, #0]
 800099e:	e9d0 0210 	ldrd	r0, r2, [r0, #64]	@ 0x40
 80009a2:	2101      	movs	r1, #1
 80009a4:	f002 021c 	and.w	r2, r2, #28
 80009a8:	fa01 f202 	lsl.w	r2, r1, r2
 80009ac:	6042      	str	r2, [r0, #4]
 80009ae:	f883 1025 	strb.w	r1, [r3, #37]	@ 0x25
 80009b2:	2000      	movs	r0, #0
 80009b4:	e7e6      	b.n	8000984 <HAL_DMA_Abort+0x10>

080009b6 <HAL_DMA_Abort_IT>:
 80009b6:	b510      	push	{r4, lr}
 80009b8:	f890 2025 	ldrb.w	r2, [r0, #37]	@ 0x25
 80009bc:	2a02      	cmp	r2, #2
 80009be:	d003      	beq.n	80009c8 <HAL_DMA_Abort_IT+0x12>
 80009c0:	2204      	movs	r2, #4
 80009c2:	63c2      	str	r2, [r0, #60]	@ 0x3c
 80009c4:	2001      	movs	r0, #1
 80009c6:	bd10      	pop	{r4, pc}
 80009c8:	6802      	ldr	r2, [r0, #0]
 80009ca:	6b83      	ldr	r3, [r0, #56]	@ 0x38
 80009cc:	6811      	ldr	r1, [r2, #0]
 80009ce:	f021 010e 	bic.w	r1, r1, #14
 80009d2:	6011      	str	r1, [r2, #0]
 80009d4:	6811      	ldr	r1, [r2, #0]
 80009d6:	f021 0101 	bic.w	r1, r1, #1
 80009da:	6011      	str	r1, [r2, #0]
 80009dc:	e9d0 4210 	ldrd	r4, r2, [r0, #64]	@ 0x40
 80009e0:	2101      	movs	r1, #1
 80009e2:	f002 021c 	and.w	r2, r2, #28
 80009e6:	fa01 f202 	lsl.w	r2, r1, r2
 80009ea:	6062      	str	r2, [r4, #4]
 80009ec:	2200      	movs	r2, #0
 80009ee:	f880 1025 	strb.w	r1, [r0, #37]	@ 0x25
 80009f2:	f880 2024 	strb.w	r2, [r0, #36]	@ 0x24
 80009f6:	b103      	cbz	r3, 80009fa <HAL_DMA_Abort_IT+0x44>
 80009f8:	4798      	blx	r3
 80009fa:	2000      	movs	r0, #0
 80009fc:	e7e3      	b.n	80009c6 <HAL_DMA_Abort_IT+0x10>
	...

08000a00 <HAL_GPIO_Init>:
 8000a00:	e92d 4ff7 	stmdb	sp!, {r0, r1, r2, r4, r5, r6, r7, r8, r9, sl, fp, lr}
 8000a04:	f8df 91a8 	ldr.w	r9, [pc, #424]	@ 8000bb0 <HAL_GPIO_Init+0x1b0>
 8000a08:	4c67      	ldr	r4, [pc, #412]	@ (8000ba8 <HAL_GPIO_Init+0x1a8>)
 8000a0a:	2300      	movs	r3, #0
 8000a0c:	680a      	ldr	r2, [r1, #0]
 8000a0e:	fa32 f503 	lsrs.w	r5, r2, r3
 8000a12:	d102      	bne.n	8000a1a <HAL_GPIO_Init+0x1a>
 8000a14:	b003      	add	sp, #12
 8000a16:	e8bd 8ff0 	ldmia.w	sp!, {r4, r5, r6, r7, r8, r9, sl, fp, pc}
 8000a1a:	2501      	movs	r5, #1
 8000a1c:	fa05 f803 	lsl.w	r8, r5, r3
 8000a20:	ea18 0202 	ands.w	r2, r8, r2
 8000a24:	f000 80b1 	beq.w	8000b8a <HAL_GPIO_Init+0x18a>
 8000a28:	684d      	ldr	r5, [r1, #4]
 8000a2a:	2703      	movs	r7, #3
 8000a2c:	f005 0603 	and.w	r6, r5, #3
 8000a30:	ea4f 0e43 	mov.w	lr, r3, lsl #1
 8000a34:	fa07 fc0e 	lsl.w	ip, r7, lr
 8000a38:	1e77      	subs	r7, r6, #1
 8000a3a:	2f01      	cmp	r7, #1
 8000a3c:	ea6f 0c0c 	mvn.w	ip, ip
 8000a40:	d834      	bhi.n	8000aac <HAL_GPIO_Init+0xac>
 8000a42:	6887      	ldr	r7, [r0, #8]
 8000a44:	ea07 0a0c 	and.w	sl, r7, ip
 8000a48:	68cf      	ldr	r7, [r1, #12]
 8000a4a:	fa07 f70e 	lsl.w	r7, r7, lr
 8000a4e:	ea47 070a 	orr.w	r7, r7, sl
 8000a52:	6087      	str	r7, [r0, #8]
 8000a54:	6847      	ldr	r7, [r0, #4]
 8000a56:	ea27 0808 	bic.w	r8, r7, r8
 8000a5a:	f3c5 1700 	ubfx	r7, r5, #4, #1
 8000a5e:	409f      	lsls	r7, r3
 8000a60:	ea47 0708 	orr.w	r7, r7, r8
 8000a64:	6047      	str	r7, [r0, #4]
 8000a66:	68c7      	ldr	r7, [r0, #12]
 8000a68:	ea07 080c 	and.w	r8, r7, ip
 8000a6c:	688f      	ldr	r7, [r1, #8]
 8000a6e:	fa07 f70e 	lsl.w	r7, r7, lr
 8000a72:	ea47 0708 	orr.w	r7, r7, r8
 8000a76:	2e02      	cmp	r6, #2
 8000a78:	60c7      	str	r7, [r0, #12]
 8000a7a:	d122      	bne.n	8000ac2 <HAL_GPIO_Init+0xc2>
 8000a7c:	ea4f 08d3 	mov.w	r8, r3, lsr #3
 8000a80:	eb00 0888 	add.w	r8, r0, r8, lsl #2
 8000a84:	f003 0a07 	and.w	sl, r3, #7
 8000a88:	f8d8 7020 	ldr.w	r7, [r8, #32]
 8000a8c:	ea4f 0a8a 	mov.w	sl, sl, lsl #2
 8000a90:	f04f 0b0f 	mov.w	fp, #15
 8000a94:	fa0b fb0a 	lsl.w	fp, fp, sl
 8000a98:	ea27 0b0b 	bic.w	fp, r7, fp
 8000a9c:	690f      	ldr	r7, [r1, #16]
 8000a9e:	fa07 f70a 	lsl.w	r7, r7, sl
 8000aa2:	ea47 070b 	orr.w	r7, r7, fp
 8000aa6:	f8c8 7020 	str.w	r7, [r8, #32]
 8000aaa:	e00a      	b.n	8000ac2 <HAL_GPIO_Init+0xc2>
 8000aac:	2e03      	cmp	r6, #3
 8000aae:	d1da      	bne.n	8000a66 <HAL_GPIO_Init+0x66>
 8000ab0:	6ac7      	ldr	r7, [r0, #44]	@ 0x2c
 8000ab2:	ea27 0808 	bic.w	r8, r7, r8
 8000ab6:	f3c5 07c0 	ubfx	r7, r5, #3, #1
 8000aba:	409f      	lsls	r7, r3
 8000abc:	ea47 0708 	orr.w	r7, r7, r8
 8000ac0:	62c7      	str	r7, [r0, #44]	@ 0x2c
 8000ac2:	6807      	ldr	r7, [r0, #0]
 8000ac4:	fa06 f60e 	lsl.w	r6, r6, lr
 8000ac8:	ea07 070c 	and.w	r7, r7, ip
 8000acc:	433e      	orrs	r6, r7
 8000ace:	f415 3f40 	tst.w	r5, #196608	@ 0x30000
 8000ad2:	6006      	str	r6, [r0, #0]
 8000ad4:	d059      	beq.n	8000b8a <HAL_GPIO_Init+0x18a>
 8000ad6:	f8d9 6060 	ldr.w	r6, [r9, #96]	@ 0x60
 8000ada:	f046 0601 	orr.w	r6, r6, #1
 8000ade:	f8c9 6060 	str.w	r6, [r9, #96]	@ 0x60
 8000ae2:	f8d9 6060 	ldr.w	r6, [r9, #96]	@ 0x60
 8000ae6:	f023 0703 	bic.w	r7, r3, #3
 8000aea:	f107 4780 	add.w	r7, r7, #1073741824	@ 0x40000000
 8000aee:	f006 0601 	and.w	r6, r6, #1
 8000af2:	f507 3780 	add.w	r7, r7, #65536	@ 0x10000
 8000af6:	9601      	str	r6, [sp, #4]
 8000af8:	f003 0c03 	and.w	ip, r3, #3
 8000afc:	9e01      	ldr	r6, [sp, #4]
 8000afe:	68be      	ldr	r6, [r7, #8]
 8000b00:	ea4f 0c8c 	mov.w	ip, ip, lsl #2
 8000b04:	f04f 0e0f 	mov.w	lr, #15
 8000b08:	fa0e fe0c 	lsl.w	lr, lr, ip
 8000b0c:	f1b0 4f90 	cmp.w	r0, #1207959552	@ 0x48000000
 8000b10:	ea26 0e0e 	bic.w	lr, r6, lr
 8000b14:	d03b      	beq.n	8000b8e <HAL_GPIO_Init+0x18e>
 8000b16:	4e25      	ldr	r6, [pc, #148]	@ (8000bac <HAL_GPIO_Init+0x1ac>)
 8000b18:	42b0      	cmp	r0, r6
 8000b1a:	d03a      	beq.n	8000b92 <HAL_GPIO_Init+0x192>
 8000b1c:	f506 6680 	add.w	r6, r6, #1024	@ 0x400
 8000b20:	42b0      	cmp	r0, r6
 8000b22:	d038      	beq.n	8000b96 <HAL_GPIO_Init+0x196>
 8000b24:	f506 6680 	add.w	r6, r6, #1024	@ 0x400
 8000b28:	42b0      	cmp	r0, r6
 8000b2a:	d036      	beq.n	8000b9a <HAL_GPIO_Init+0x19a>
 8000b2c:	f506 6680 	add.w	r6, r6, #1024	@ 0x400
 8000b30:	42b0      	cmp	r0, r6
 8000b32:	d034      	beq.n	8000b9e <HAL_GPIO_Init+0x19e>
 8000b34:	f506 6680 	add.w	r6, r6, #1024	@ 0x400
 8000b38:	42b0      	cmp	r0, r6
 8000b3a:	d032      	beq.n	8000ba2 <HAL_GPIO_Init+0x1a2>
 8000b3c:	f506 6680 	add.w	r6, r6, #1024	@ 0x400
 8000b40:	42b0      	cmp	r0, r6
 8000b42:	bf14      	ite	ne
 8000b44:	2607      	movne	r6, #7
 8000b46:	2606      	moveq	r6, #6
 8000b48:	fa06 f60c 	lsl.w	r6, r6, ip
 8000b4c:	ea46 060e 	orr.w	r6, r6, lr
 8000b50:	60be      	str	r6, [r7, #8]
 8000b52:	68a6      	ldr	r6, [r4, #8]
 8000b54:	43d7      	mvns	r7, r2
 8000b56:	f415 1f80 	tst.w	r5, #1048576	@ 0x100000
 8000b5a:	bf0c      	ite	eq
 8000b5c:	403e      	andeq	r6, r7
 8000b5e:	4316      	orrne	r6, r2
 8000b60:	60a6      	str	r6, [r4, #8]
 8000b62:	68e6      	ldr	r6, [r4, #12]
 8000b64:	f415 1f00 	tst.w	r5, #2097152	@ 0x200000
 8000b68:	bf0c      	ite	eq
 8000b6a:	403e      	andeq	r6, r7
 8000b6c:	4316      	orrne	r6, r2
 8000b6e:	60e6      	str	r6, [r4, #12]
 8000b70:	6866      	ldr	r6, [r4, #4]
 8000b72:	f415 3f00 	tst.w	r5, #131072	@ 0x20000
 8000b76:	bf0c      	ite	eq
 8000b78:	403e      	andeq	r6, r7
 8000b7a:	4316      	orrne	r6, r2
 8000b7c:	6066      	str	r6, [r4, #4]
 8000b7e:	6826      	ldr	r6, [r4, #0]
 8000b80:	03ed      	lsls	r5, r5, #15
 8000b82:	bf54      	ite	pl
 8000b84:	403e      	andpl	r6, r7
 8000b86:	4316      	orrmi	r6, r2
 8000b88:	6026      	str	r6, [r4, #0]
 8000b8a:	3301      	adds	r3, #1
 8000b8c:	e73e      	b.n	8000a0c <HAL_GPIO_Init+0xc>
 8000b8e:	2600      	movs	r6, #0
 8000b90:	e7da      	b.n	8000b48 <HAL_GPIO_Init+0x148>
 8000b92:	2601      	movs	r6, #1
 8000b94:	e7d8      	b.n	8000b48 <HAL_GPIO_Init+0x148>
 8000b96:	2602      	movs	r6, #2
 8000b98:	e7d6      	b.n	8000b48 <HAL_GPIO_Init+0x148>
 8000b9a:	2603      	movs	r6, #3
 8000b9c:	e7d4      	b.n	8000b48 <HAL_GPIO_Init+0x148>
 8000b9e:	2604      	movs	r6, #4
 8000ba0:	e7d2      	b.n	8000b48 <HAL_GPIO_Init+0x148>
 8000ba2:	2605      	movs	r6, #5
 8000ba4:	e7d0      	b.n	8000b48 <HAL_GPIO_Init+0x148>
 8000ba6:	bf00      	nop
 8000ba8:	40010400 	.word	0x40010400
 8000bac:	48000400 	.word	0x48000400
 8000bb0:	40021000 	.word	0x40021000

08000bb4 <HAL_GPIO_WritePin>:
 8000bb4:	b10a      	cbz	r2, 8000bba <HAL_GPIO_WritePin+0x6>
 8000bb6:	6181      	str	r1, [r0, #24]
 8000bb8:	4770      	bx	lr
 8000bba:	6281      	str	r1, [r0, #40]	@ 0x28
 8000bbc:	4770      	bx	lr
	...

08000bc0 <HAL_PWREx_GetVoltageRange>:
 8000bc0:	4b02      	ldr	r3, [pc, #8]	@ (8000bcc <HAL_PWREx_GetVoltageRange+0xc>)
 8000bc2:	6818      	ldr	r0, [r3, #0]
 8000bc4:	f400 60c0 	and.w	r0, r0, #1536	@ 0x600
 8000bc8:	4770      	bx	lr
 8000bca:	bf00      	nop
 8000bcc:	40007000 	.word	0x40007000

08000bd0 <HAL_PWREx_ControlVoltageScaling>:
 8000bd0:	4a17      	ldr	r2, [pc, #92]	@ (8000c30 <HAL_PWREx_ControlVoltageScaling+0x60>)
 8000bd2:	6813      	ldr	r3, [r2, #0]
 8000bd4:	f5b0 7f00 	cmp.w	r0, #512	@ 0x200
 8000bd8:	f403 63c0 	and.w	r3, r3, #1536	@ 0x600
 8000bdc:	d11b      	bne.n	8000c16 <HAL_PWREx_ControlVoltageScaling+0x46>
 8000bde:	f5b3 7f00 	cmp.w	r3, #512	@ 0x200
 8000be2:	d01b      	beq.n	8000c1c <HAL_PWREx_ControlVoltageScaling+0x4c>
 8000be4:	6813      	ldr	r3, [r2, #0]
 8000be6:	f423 63c0 	bic.w	r3, r3, #1536	@ 0x600
 8000bea:	f443 7300 	orr.w	r3, r3, #512	@ 0x200
 8000bee:	6013      	str	r3, [r2, #0]
 8000bf0:	4b10      	ldr	r3, [pc, #64]	@ (8000c34 <HAL_PWREx_ControlVoltageScaling+0x64>)
 8000bf2:	681b      	ldr	r3, [r3, #0]
 8000bf4:	2132      	movs	r1, #50	@ 0x32
 8000bf6:	434b      	muls	r3, r1
 8000bf8:	490f      	ldr	r1, [pc, #60]	@ (8000c38 <HAL_PWREx_ControlVoltageScaling+0x68>)
 8000bfa:	fbb3 f3f1 	udiv	r3, r3, r1
 8000bfe:	3301      	adds	r3, #1
 8000c00:	6951      	ldr	r1, [r2, #20]
 8000c02:	0549      	lsls	r1, r1, #21
 8000c04:	d500      	bpl.n	8000c08 <HAL_PWREx_ControlVoltageScaling+0x38>
 8000c06:	b923      	cbnz	r3, 8000c12 <HAL_PWREx_ControlVoltageScaling+0x42>
 8000c08:	6953      	ldr	r3, [r2, #20]
 8000c0a:	055b      	lsls	r3, r3, #21
 8000c0c:	d506      	bpl.n	8000c1c <HAL_PWREx_ControlVoltageScaling+0x4c>
 8000c0e:	2003      	movs	r0, #3
 8000c10:	4770      	bx	lr
 8000c12:	3b01      	subs	r3, #1
 8000c14:	e7f4      	b.n	8000c00 <HAL_PWREx_ControlVoltageScaling+0x30>
 8000c16:	f5b3 6f80 	cmp.w	r3, #1024	@ 0x400
 8000c1a:	d101      	bne.n	8000c20 <HAL_PWREx_ControlVoltageScaling+0x50>
 8000c1c:	2000      	movs	r0, #0
 8000c1e:	4770      	bx	lr
 8000c20:	6813      	ldr	r3, [r2, #0]
 8000c22:	f423 63c0 	bic.w	r3, r3, #1536	@ 0x600
 8000c26:	f443 6380 	orr.w	r3, r3, #1024	@ 0x400
 8000c2a:	6013      	str	r3, [r2, #0]
 8000c2c:	e7f6      	b.n	8000c1c <HAL_PWREx_ControlVoltageScaling+0x4c>
 8000c2e:	bf00      	nop
 8000c30:	40007000 	.word	0x40007000
 8000c34:	20000014 	.word	0x20000014
 8000c38:	000f4240 	.word	0x000f4240

08000c3c <RCC_SetFlashLatencyFromMSIRange>:
 8000c3c:	b537      	push	{r0, r1, r2, r4, r5, lr}
 8000c3e:	4d1e      	ldr	r5, [pc, #120]	@ (8000cb8 <RCC_SetFlashLatencyFromMSIRange+0x7c>)
 8000c40:	6dab      	ldr	r3, [r5, #88]	@ 0x58
 8000c42:	00da      	lsls	r2, r3, #3
 8000c44:	4604      	mov	r4, r0
 8000c46:	d518      	bpl.n	8000c7a <RCC_SetFlashLatencyFromMSIRange+0x3e>
 8000c48:	f7ff ffba 	bl	8000bc0 <HAL_PWREx_GetVoltageRange>
 8000c4c:	f5b0 7f00 	cmp.w	r0, #512	@ 0x200
 8000c50:	d123      	bne.n	8000c9a <RCC_SetFlashLatencyFromMSIRange+0x5e>
 8000c52:	2c80      	cmp	r4, #128	@ 0x80
 8000c54:	d929      	bls.n	8000caa <RCC_SetFlashLatencyFromMSIRange+0x6e>
 8000c56:	2ca0      	cmp	r4, #160	@ 0xa0
 8000c58:	bf8c      	ite	hi
 8000c5a:	2402      	movhi	r4, #2
 8000c5c:	2401      	movls	r4, #1
 8000c5e:	4917      	ldr	r1, [pc, #92]	@ (8000cbc <RCC_SetFlashLatencyFromMSIRange+0x80>)
 8000c60:	680a      	ldr	r2, [r1, #0]
 8000c62:	f022 0207 	bic.w	r2, r2, #7
 8000c66:	4322      	orrs	r2, r4
 8000c68:	600a      	str	r2, [r1, #0]
 8000c6a:	6808      	ldr	r0, [r1, #0]
 8000c6c:	f000 0007 	and.w	r0, r0, #7
 8000c70:	1b00      	subs	r0, r0, r4
 8000c72:	bf18      	it	ne
 8000c74:	2001      	movne	r0, #1
 8000c76:	b003      	add	sp, #12
 8000c78:	bd30      	pop	{r4, r5, pc}
 8000c7a:	6dab      	ldr	r3, [r5, #88]	@ 0x58
 8000c7c:	f043 5380 	orr.w	r3, r3, #268435456	@ 0x10000000
 8000c80:	65ab      	str	r3, [r5, #88]	@ 0x58
 8000c82:	6dab      	ldr	r3, [r5, #88]	@ 0x58
 8000c84:	f003 5380 	and.w	r3, r3, #268435456	@ 0x10000000
 8000c88:	9301      	str	r3, [sp, #4]
 8000c8a:	9b01      	ldr	r3, [sp, #4]
 8000c8c:	f7ff ff98 	bl	8000bc0 <HAL_PWREx_GetVoltageRange>
 8000c90:	6dab      	ldr	r3, [r5, #88]	@ 0x58
 8000c92:	f023 5380 	bic.w	r3, r3, #268435456	@ 0x10000000
 8000c96:	65ab      	str	r3, [r5, #88]	@ 0x58
 8000c98:	e7d8      	b.n	8000c4c <RCC_SetFlashLatencyFromMSIRange+0x10>
 8000c9a:	2c80      	cmp	r4, #128	@ 0x80
 8000c9c:	d807      	bhi.n	8000cae <RCC_SetFlashLatencyFromMSIRange+0x72>
 8000c9e:	d008      	beq.n	8000cb2 <RCC_SetFlashLatencyFromMSIRange+0x76>
 8000ca0:	f1a4 0370 	sub.w	r3, r4, #112	@ 0x70
 8000ca4:	425c      	negs	r4, r3
 8000ca6:	415c      	adcs	r4, r3
 8000ca8:	e7d9      	b.n	8000c5e <RCC_SetFlashLatencyFromMSIRange+0x22>
 8000caa:	2400      	movs	r4, #0
 8000cac:	e7d7      	b.n	8000c5e <RCC_SetFlashLatencyFromMSIRange+0x22>
 8000cae:	2403      	movs	r4, #3
 8000cb0:	e7d5      	b.n	8000c5e <RCC_SetFlashLatencyFromMSIRange+0x22>
 8000cb2:	2402      	movs	r4, #2
 8000cb4:	e7d3      	b.n	8000c5e <RCC_SetFlashLatencyFromMSIRange+0x22>
 8000cb6:	bf00      	nop
 8000cb8:	40021000 	.word	0x40021000
 8000cbc:	40022000 	.word	0x40022000

08000cc0 <HAL_RCC_GetSysClockFreq>:
 8000cc0:	4b20      	ldr	r3, [pc, #128]	@ (8000d44 <HAL_RCC_GetSysClockFreq+0x84>)
 8000cc2:	689a      	ldr	r2, [r3, #8]
 8000cc4:	68d9      	ldr	r1, [r3, #12]
 8000cc6:	f012 020c 	ands.w	r2, r2, #12
 8000cca:	d005      	beq.n	8000cd8 <HAL_RCC_GetSysClockFreq+0x18>
 8000ccc:	2a0c      	cmp	r2, #12
 8000cce:	d12c      	bne.n	8000d2a <HAL_RCC_GetSysClockFreq+0x6a>
 8000cd0:	f001 0103 	and.w	r1, r1, #3
 8000cd4:	2901      	cmp	r1, #1
 8000cd6:	d12f      	bne.n	8000d38 <HAL_RCC_GetSysClockFreq+0x78>
 8000cd8:	6819      	ldr	r1, [r3, #0]
 8000cda:	481b      	ldr	r0, [pc, #108]	@ (8000d48 <HAL_RCC_GetSysClockFreq+0x88>)
 8000cdc:	0709      	lsls	r1, r1, #28
 8000cde:	bf55      	itete	pl
 8000ce0:	f8d3 1094 	ldrpl.w	r1, [r3, #148]	@ 0x94
 8000ce4:	6819      	ldrmi	r1, [r3, #0]
 8000ce6:	f3c1 2103 	ubfxpl	r1, r1, #8, #4
 8000cea:	f3c1 1103 	ubfxmi	r1, r1, #4, #4
 8000cee:	f850 0021 	ldr.w	r0, [r0, r1, lsl #2]
 8000cf2:	b332      	cbz	r2, 8000d42 <HAL_RCC_GetSysClockFreq+0x82>
 8000cf4:	68da      	ldr	r2, [r3, #12]
 8000cf6:	f002 0203 	and.w	r2, r2, #3
 8000cfa:	2a02      	cmp	r2, #2
 8000cfc:	d01e      	beq.n	8000d3c <HAL_RCC_GetSysClockFreq+0x7c>
 8000cfe:	4913      	ldr	r1, [pc, #76]	@ (8000d4c <HAL_RCC_GetSysClockFreq+0x8c>)
 8000d00:	2a03      	cmp	r2, #3
 8000d02:	bf08      	it	eq
 8000d04:	4608      	moveq	r0, r1
 8000d06:	68d9      	ldr	r1, [r3, #12]
 8000d08:	68da      	ldr	r2, [r3, #12]
 8000d0a:	f3c2 2206 	ubfx	r2, r2, #8, #7
 8000d0e:	4342      	muls	r2, r0
 8000d10:	68d8      	ldr	r0, [r3, #12]
 8000d12:	f3c0 6041 	ubfx	r0, r0, #25, #2
 8000d16:	f3c1 1102 	ubfx	r1, r1, #4, #3
 8000d1a:	3001      	adds	r0, #1
 8000d1c:	3101      	adds	r1, #1
 8000d1e:	0040      	lsls	r0, r0, #1
 8000d20:	fbb2 f2f1 	udiv	r2, r2, r1
 8000d24:	fbb2 f0f0 	udiv	r0, r2, r0
 8000d28:	4770      	bx	lr
 8000d2a:	2a04      	cmp	r2, #4
 8000d2c:	d008      	beq.n	8000d40 <HAL_RCC_GetSysClockFreq+0x80>
 8000d2e:	2a08      	cmp	r2, #8
 8000d30:	4806      	ldr	r0, [pc, #24]	@ (8000d4c <HAL_RCC_GetSysClockFreq+0x8c>)
 8000d32:	bf18      	it	ne
 8000d34:	2000      	movne	r0, #0
 8000d36:	4770      	bx	lr
 8000d38:	2000      	movs	r0, #0
 8000d3a:	e7db      	b.n	8000cf4 <HAL_RCC_GetSysClockFreq+0x34>
 8000d3c:	4804      	ldr	r0, [pc, #16]	@ (8000d50 <HAL_RCC_GetSysClockFreq+0x90>)
 8000d3e:	e7e2      	b.n	8000d06 <HAL_RCC_GetSysClockFreq+0x46>
 8000d40:	4803      	ldr	r0, [pc, #12]	@ (8000d50 <HAL_RCC_GetSysClockFreq+0x90>)
 8000d42:	4770      	bx	lr
 8000d44:	40021000 	.word	0x40021000
 8000d48:	08002534 	.word	0x08002534
 8000d4c:	007a1200 	.word	0x007a1200
 8000d50:	00f42400 	.word	0x00f42400

08000d54 <HAL_RCC_OscConfig>:
 8000d54:	e92d 43f7 	stmdb	sp!, {r0, r1, r2, r4, r5, r6, r7, r8, r9, lr}
 8000d58:	4605      	mov	r5, r0
 8000d5a:	b918      	cbnz	r0, 8000d64 <HAL_RCC_OscConfig+0x10>
 8000d5c:	2001      	movs	r0, #1
 8000d5e:	b003      	add	sp, #12
 8000d60:	e8bd 83f0 	ldmia.w	sp!, {r4, r5, r6, r7, r8, r9, pc}
 8000d64:	4c92      	ldr	r4, [pc, #584]	@ (8000fb0 <HAL_RCC_OscConfig+0x25c>)
 8000d66:	6803      	ldr	r3, [r0, #0]
 8000d68:	68a6      	ldr	r6, [r4, #8]
 8000d6a:	68e7      	ldr	r7, [r4, #12]
 8000d6c:	06d8      	lsls	r0, r3, #27
 8000d6e:	f006 060c 	and.w	r6, r6, #12
 8000d72:	f007 0703 	and.w	r7, r7, #3
 8000d76:	d53d      	bpl.n	8000df4 <HAL_RCC_OscConfig+0xa0>
 8000d78:	b11e      	cbz	r6, 8000d82 <HAL_RCC_OscConfig+0x2e>
 8000d7a:	2e0c      	cmp	r6, #12
 8000d7c:	d166      	bne.n	8000e4c <HAL_RCC_OscConfig+0xf8>
 8000d7e:	2f01      	cmp	r7, #1
 8000d80:	d164      	bne.n	8000e4c <HAL_RCC_OscConfig+0xf8>
 8000d82:	6823      	ldr	r3, [r4, #0]
 8000d84:	0799      	lsls	r1, r3, #30
 8000d86:	d502      	bpl.n	8000d8e <HAL_RCC_OscConfig+0x3a>
 8000d88:	69ab      	ldr	r3, [r5, #24]
 8000d8a:	2b00      	cmp	r3, #0
 8000d8c:	d0e6      	beq.n	8000d5c <HAL_RCC_OscConfig+0x8>
 8000d8e:	6823      	ldr	r3, [r4, #0]
 8000d90:	6a28      	ldr	r0, [r5, #32]
 8000d92:	071a      	lsls	r2, r3, #28
 8000d94:	bf56      	itet	pl
 8000d96:	f8d4 3094 	ldrpl.w	r3, [r4, #148]	@ 0x94
 8000d9a:	6823      	ldrmi	r3, [r4, #0]
 8000d9c:	091b      	lsrpl	r3, r3, #4
 8000d9e:	f003 03f0 	and.w	r3, r3, #240	@ 0xf0
 8000da2:	4298      	cmp	r0, r3
 8000da4:	d93b      	bls.n	8000e1e <HAL_RCC_OscConfig+0xca>
 8000da6:	f7ff ff49 	bl	8000c3c <RCC_SetFlashLatencyFromMSIRange>
 8000daa:	2800      	cmp	r0, #0
 8000dac:	d1d6      	bne.n	8000d5c <HAL_RCC_OscConfig+0x8>
 8000dae:	6823      	ldr	r3, [r4, #0]
 8000db0:	f043 0308 	orr.w	r3, r3, #8
 8000db4:	6023      	str	r3, [r4, #0]
 8000db6:	6823      	ldr	r3, [r4, #0]
 8000db8:	6a2a      	ldr	r2, [r5, #32]
 8000dba:	f023 03f0 	bic.w	r3, r3, #240	@ 0xf0
 8000dbe:	4313      	orrs	r3, r2
 8000dc0:	6023      	str	r3, [r4, #0]
 8000dc2:	6863      	ldr	r3, [r4, #4]
 8000dc4:	69ea      	ldr	r2, [r5, #28]
 8000dc6:	f423 437f 	bic.w	r3, r3, #65280	@ 0xff00
 8000dca:	ea43 2302 	orr.w	r3, r3, r2, lsl #8
 8000dce:	6063      	str	r3, [r4, #4]
 8000dd0:	f7ff ff76 	bl	8000cc0 <HAL_RCC_GetSysClockFreq>
 8000dd4:	68a3      	ldr	r3, [r4, #8]
 8000dd6:	4a77      	ldr	r2, [pc, #476]	@ (8000fb4 <HAL_RCC_OscConfig+0x260>)
 8000dd8:	f3c3 1303 	ubfx	r3, r3, #4, #4
 8000ddc:	5cd3      	ldrb	r3, [r2, r3]
 8000dde:	f003 031f 	and.w	r3, r3, #31
 8000de2:	40d8      	lsrs	r0, r3
 8000de4:	4b74      	ldr	r3, [pc, #464]	@ (8000fb8 <HAL_RCC_OscConfig+0x264>)
 8000de6:	6018      	str	r0, [r3, #0]
 8000de8:	4b74      	ldr	r3, [pc, #464]	@ (8000fbc <HAL_RCC_OscConfig+0x268>)
 8000dea:	6818      	ldr	r0, [r3, #0]
 8000dec:	f7ff fd0e 	bl	800080c <HAL_InitTick>
 8000df0:	2800      	cmp	r0, #0
 8000df2:	d1b4      	bne.n	8000d5e <HAL_RCC_OscConfig+0xa>
 8000df4:	682b      	ldr	r3, [r5, #0]
 8000df6:	07d9      	lsls	r1, r3, #31
 8000df8:	d45f      	bmi.n	8000eba <HAL_RCC_OscConfig+0x166>
 8000dfa:	682b      	ldr	r3, [r5, #0]
 8000dfc:	079a      	lsls	r2, r3, #30
 8000dfe:	f100 809e 	bmi.w	8000f3e <HAL_RCC_OscConfig+0x1ea>
 8000e02:	682b      	ldr	r3, [r5, #0]
 8000e04:	0719      	lsls	r1, r3, #28
 8000e06:	f100 80db 	bmi.w	8000fc0 <HAL_RCC_OscConfig+0x26c>
 8000e0a:	682b      	ldr	r3, [r5, #0]
 8000e0c:	075a      	lsls	r2, r3, #29
 8000e0e:	f100 8101 	bmi.w	8001014 <HAL_RCC_OscConfig+0x2c0>
 8000e12:	6aab      	ldr	r3, [r5, #40]	@ 0x28
 8000e14:	2b00      	cmp	r3, #0
 8000e16:	f040 816a 	bne.w	80010ee <HAL_RCC_OscConfig+0x39a>
 8000e1a:	2000      	movs	r0, #0
 8000e1c:	e79f      	b.n	8000d5e <HAL_RCC_OscConfig+0xa>
 8000e1e:	6823      	ldr	r3, [r4, #0]
 8000e20:	f043 0308 	orr.w	r3, r3, #8
 8000e24:	6023      	str	r3, [r4, #0]
 8000e26:	6823      	ldr	r3, [r4, #0]
 8000e28:	f023 03f0 	bic.w	r3, r3, #240	@ 0xf0
 8000e2c:	4303      	orrs	r3, r0
 8000e2e:	6023      	str	r3, [r4, #0]
 8000e30:	6863      	ldr	r3, [r4, #4]
 8000e32:	69ea      	ldr	r2, [r5, #28]
 8000e34:	f423 437f 	bic.w	r3, r3, #65280	@ 0xff00
 8000e38:	ea43 2302 	orr.w	r3, r3, r2, lsl #8
 8000e3c:	6063      	str	r3, [r4, #4]
 8000e3e:	2e00      	cmp	r6, #0
 8000e40:	d1c6      	bne.n	8000dd0 <HAL_RCC_OscConfig+0x7c>
 8000e42:	f7ff fefb 	bl	8000c3c <RCC_SetFlashLatencyFromMSIRange>
 8000e46:	2800      	cmp	r0, #0
 8000e48:	d0c2      	beq.n	8000dd0 <HAL_RCC_OscConfig+0x7c>
 8000e4a:	e787      	b.n	8000d5c <HAL_RCC_OscConfig+0x8>
 8000e4c:	69ab      	ldr	r3, [r5, #24]
 8000e4e:	b31b      	cbz	r3, 8000e98 <HAL_RCC_OscConfig+0x144>
 8000e50:	6823      	ldr	r3, [r4, #0]
 8000e52:	f043 0301 	orr.w	r3, r3, #1
 8000e56:	6023      	str	r3, [r4, #0]
 8000e58:	f7ff fd20 	bl	800089c <HAL_GetTick>
 8000e5c:	4680      	mov	r8, r0
 8000e5e:	6823      	ldr	r3, [r4, #0]
 8000e60:	079b      	lsls	r3, r3, #30
 8000e62:	d511      	bpl.n	8000e88 <HAL_RCC_OscConfig+0x134>
 8000e64:	6823      	ldr	r3, [r4, #0]
 8000e66:	f043 0308 	orr.w	r3, r3, #8
 8000e6a:	6023      	str	r3, [r4, #0]
 8000e6c:	6823      	ldr	r3, [r4, #0]
 8000e6e:	6a2a      	ldr	r2, [r5, #32]
 8000e70:	f023 03f0 	bic.w	r3, r3, #240	@ 0xf0
 8000e74:	4313      	orrs	r3, r2
 8000e76:	6023      	str	r3, [r4, #0]
 8000e78:	6863      	ldr	r3, [r4, #4]
 8000e7a:	69ea      	ldr	r2, [r5, #28]
 8000e7c:	f423 437f 	bic.w	r3, r3, #65280	@ 0xff00
 8000e80:	ea43 2302 	orr.w	r3, r3, r2, lsl #8
 8000e84:	6063      	str	r3, [r4, #4]
 8000e86:	e7b5      	b.n	8000df4 <HAL_RCC_OscConfig+0xa0>
 8000e88:	f7ff fd08 	bl	800089c <HAL_GetTick>
 8000e8c:	eba0 0008 	sub.w	r0, r0, r8
 8000e90:	2802      	cmp	r0, #2
 8000e92:	d9e4      	bls.n	8000e5e <HAL_RCC_OscConfig+0x10a>
 8000e94:	2003      	movs	r0, #3
 8000e96:	e762      	b.n	8000d5e <HAL_RCC_OscConfig+0xa>
 8000e98:	6823      	ldr	r3, [r4, #0]
 8000e9a:	f023 0301 	bic.w	r3, r3, #1
 8000e9e:	6023      	str	r3, [r4, #0]
 8000ea0:	f7ff fcfc 	bl	800089c <HAL_GetTick>
 8000ea4:	4680      	mov	r8, r0
 8000ea6:	6823      	ldr	r3, [r4, #0]
 8000ea8:	0798      	lsls	r0, r3, #30
 8000eaa:	d5a3      	bpl.n	8000df4 <HAL_RCC_OscConfig+0xa0>
 8000eac:	f7ff fcf6 	bl	800089c <HAL_GetTick>
 8000eb0:	eba0 0008 	sub.w	r0, r0, r8
 8000eb4:	2802      	cmp	r0, #2
 8000eb6:	d9f6      	bls.n	8000ea6 <HAL_RCC_OscConfig+0x152>
 8000eb8:	e7ec      	b.n	8000e94 <HAL_RCC_OscConfig+0x140>
 8000eba:	2e08      	cmp	r6, #8
 8000ebc:	d003      	beq.n	8000ec6 <HAL_RCC_OscConfig+0x172>
 8000ebe:	2e0c      	cmp	r6, #12
 8000ec0:	d108      	bne.n	8000ed4 <HAL_RCC_OscConfig+0x180>
 8000ec2:	2f03      	cmp	r7, #3
 8000ec4:	d106      	bne.n	8000ed4 <HAL_RCC_OscConfig+0x180>
 8000ec6:	6823      	ldr	r3, [r4, #0]
 8000ec8:	039b      	lsls	r3, r3, #14
 8000eca:	d596      	bpl.n	8000dfa <HAL_RCC_OscConfig+0xa6>
 8000ecc:	686b      	ldr	r3, [r5, #4]
 8000ece:	2b00      	cmp	r3, #0
 8000ed0:	d193      	bne.n	8000dfa <HAL_RCC_OscConfig+0xa6>
 8000ed2:	e743      	b.n	8000d5c <HAL_RCC_OscConfig+0x8>
 8000ed4:	686b      	ldr	r3, [r5, #4]
 8000ed6:	f5b3 3f80 	cmp.w	r3, #65536	@ 0x10000
 8000eda:	d110      	bne.n	8000efe <HAL_RCC_OscConfig+0x1aa>
 8000edc:	6823      	ldr	r3, [r4, #0]
 8000ede:	f443 3380 	orr.w	r3, r3, #65536	@ 0x10000
 8000ee2:	6023      	str	r3, [r4, #0]
 8000ee4:	f7ff fcda 	bl	800089c <HAL_GetTick>
 8000ee8:	4680      	mov	r8, r0
 8000eea:	6823      	ldr	r3, [r4, #0]
 8000eec:	0398      	lsls	r0, r3, #14
 8000eee:	d484      	bmi.n	8000dfa <HAL_RCC_OscConfig+0xa6>
 8000ef0:	f7ff fcd4 	bl	800089c <HAL_GetTick>
 8000ef4:	eba0 0008 	sub.w	r0, r0, r8
 8000ef8:	2864      	cmp	r0, #100	@ 0x64
 8000efa:	d9f6      	bls.n	8000eea <HAL_RCC_OscConfig+0x196>
 8000efc:	e7ca      	b.n	8000e94 <HAL_RCC_OscConfig+0x140>
 8000efe:	f5b3 2fa0 	cmp.w	r3, #327680	@ 0x50000
 8000f02:	d104      	bne.n	8000f0e <HAL_RCC_OscConfig+0x1ba>
 8000f04:	6823      	ldr	r3, [r4, #0]
 8000f06:	f443 2380 	orr.w	r3, r3, #262144	@ 0x40000
 8000f0a:	6023      	str	r3, [r4, #0]
 8000f0c:	e7e6      	b.n	8000edc <HAL_RCC_OscConfig+0x188>
 8000f0e:	6822      	ldr	r2, [r4, #0]
 8000f10:	f422 3280 	bic.w	r2, r2, #65536	@ 0x10000
 8000f14:	6022      	str	r2, [r4, #0]
 8000f16:	6822      	ldr	r2, [r4, #0]
 8000f18:	f422 2280 	bic.w	r2, r2, #262144	@ 0x40000
 8000f1c:	6022      	str	r2, [r4, #0]
 8000f1e:	2b00      	cmp	r3, #0
 8000f20:	d1e0      	bne.n	8000ee4 <HAL_RCC_OscConfig+0x190>
 8000f22:	f7ff fcbb 	bl	800089c <HAL_GetTick>
 8000f26:	4680      	mov	r8, r0
 8000f28:	6823      	ldr	r3, [r4, #0]
 8000f2a:	0399      	lsls	r1, r3, #14
 8000f2c:	f57f af65 	bpl.w	8000dfa <HAL_RCC_OscConfig+0xa6>
 8000f30:	f7ff fcb4 	bl	800089c <HAL_GetTick>
 8000f34:	eba0 0008 	sub.w	r0, r0, r8
 8000f38:	2864      	cmp	r0, #100	@ 0x64
 8000f3a:	d9f5      	bls.n	8000f28 <HAL_RCC_OscConfig+0x1d4>
 8000f3c:	e7aa      	b.n	8000e94 <HAL_RCC_OscConfig+0x140>
 8000f3e:	2e04      	cmp	r6, #4
 8000f40:	d003      	beq.n	8000f4a <HAL_RCC_OscConfig+0x1f6>
 8000f42:	2e0c      	cmp	r6, #12
 8000f44:	d110      	bne.n	8000f68 <HAL_RCC_OscConfig+0x214>
 8000f46:	2f02      	cmp	r7, #2
 8000f48:	d10e      	bne.n	8000f68 <HAL_RCC_OscConfig+0x214>
 8000f4a:	6823      	ldr	r3, [r4, #0]
 8000f4c:	055a      	lsls	r2, r3, #21
 8000f4e:	d503      	bpl.n	8000f58 <HAL_RCC_OscConfig+0x204>
 8000f50:	68eb      	ldr	r3, [r5, #12]
 8000f52:	2b00      	cmp	r3, #0
 8000f54:	f43f af02 	beq.w	8000d5c <HAL_RCC_OscConfig+0x8>
 8000f58:	6863      	ldr	r3, [r4, #4]
 8000f5a:	692a      	ldr	r2, [r5, #16]
 8000f5c:	f023 53f8 	bic.w	r3, r3, #520093696	@ 0x1f000000
 8000f60:	ea43 6302 	orr.w	r3, r3, r2, lsl #24
 8000f64:	6063      	str	r3, [r4, #4]
 8000f66:	e74c      	b.n	8000e02 <HAL_RCC_OscConfig+0xae>
 8000f68:	68eb      	ldr	r3, [r5, #12]
 8000f6a:	b17b      	cbz	r3, 8000f8c <HAL_RCC_OscConfig+0x238>
 8000f6c:	6823      	ldr	r3, [r4, #0]
 8000f6e:	f443 7380 	orr.w	r3, r3, #256	@ 0x100
 8000f72:	6023      	str	r3, [r4, #0]
 8000f74:	f7ff fc92 	bl	800089c <HAL_GetTick>
 8000f78:	4607      	mov	r7, r0
 8000f7a:	6823      	ldr	r3, [r4, #0]
 8000f7c:	055b      	lsls	r3, r3, #21
 8000f7e:	d4eb      	bmi.n	8000f58 <HAL_RCC_OscConfig+0x204>
 8000f80:	f7ff fc8c 	bl	800089c <HAL_GetTick>
 8000f84:	1bc0      	subs	r0, r0, r7
 8000f86:	2802      	cmp	r0, #2
 8000f88:	d9f7      	bls.n	8000f7a <HAL_RCC_OscConfig+0x226>
 8000f8a:	e783      	b.n	8000e94 <HAL_RCC_OscConfig+0x140>
 8000f8c:	6823      	ldr	r3, [r4, #0]
 8000f8e:	f423 7380 	bic.w	r3, r3, #256	@ 0x100
 8000f92:	6023      	str	r3, [r4, #0]
 8000f94:	f7ff fc82 	bl	800089c <HAL_GetTick>
 8000f98:	4607      	mov	r7, r0
 8000f9a:	6823      	ldr	r3, [r4, #0]
 8000f9c:	0558      	lsls	r0, r3, #21
 8000f9e:	f57f af30 	bpl.w	8000e02 <HAL_RCC_OscConfig+0xae>
 8000fa2:	f7ff fc7b 	bl	800089c <HAL_GetTick>
 8000fa6:	1bc0      	subs	r0, r0, r7
 8000fa8:	2802      	cmp	r0, #2
 8000faa:	d9f6      	bls.n	8000f9a <HAL_RCC_OscConfig+0x246>
 8000fac:	e772      	b.n	8000e94 <HAL_RCC_OscConfig+0x140>
 8000fae:	bf00      	nop
 8000fb0:	40021000 	.word	0x40021000
 8000fb4:	0800256c 	.word	0x0800256c
 8000fb8:	20000014 	.word	0x20000014
 8000fbc:	2000001c 	.word	0x2000001c
 8000fc0:	696b      	ldr	r3, [r5, #20]
 8000fc2:	b19b      	cbz	r3, 8000fec <HAL_RCC_OscConfig+0x298>
 8000fc4:	f8d4 3094 	ldr.w	r3, [r4, #148]	@ 0x94
 8000fc8:	f043 0301 	orr.w	r3, r3, #1
 8000fcc:	f8c4 3094 	str.w	r3, [r4, #148]	@ 0x94
 8000fd0:	f7ff fc64 	bl	800089c <HAL_GetTick>
 8000fd4:	4607      	mov	r7, r0
 8000fd6:	f8d4 3094 	ldr.w	r3, [r4, #148]	@ 0x94
 8000fda:	079b      	lsls	r3, r3, #30
 8000fdc:	f53f af15 	bmi.w	8000e0a <HAL_RCC_OscConfig+0xb6>
 8000fe0:	f7ff fc5c 	bl	800089c <HAL_GetTick>
 8000fe4:	1bc0      	subs	r0, r0, r7
 8000fe6:	2802      	cmp	r0, #2
 8000fe8:	d9f5      	bls.n	8000fd6 <HAL_RCC_OscConfig+0x282>
 8000fea:	e753      	b.n	8000e94 <HAL_RCC_OscConfig+0x140>
 8000fec:	f8d4 3094 	ldr.w	r3, [r4, #148]	@ 0x94
 8000ff0:	f023 0301 	bic.w	r3, r3, #1
 8000ff4:	f8c4 3094 	str.w	r3, [r4, #148]	@ 0x94
 8000ff8:	f7ff fc50 	bl	800089c <HAL_GetTick>
 8000ffc:	4607      	mov	r7, r0
 8000ffe:	f8d4 3094 	ldr.w	r3, [r4, #148]	@ 0x94
 8001002:	0798      	lsls	r0, r3, #30
 8001004:	f57f af01 	bpl.w	8000e0a <HAL_RCC_OscConfig+0xb6>
 8001008:	f7ff fc48 	bl	800089c <HAL_GetTick>
 800100c:	1bc0      	subs	r0, r0, r7
 800100e:	2802      	cmp	r0, #2
 8001010:	d9f5      	bls.n	8000ffe <HAL_RCC_OscConfig+0x2aa>
 8001012:	e73f      	b.n	8000e94 <HAL_RCC_OscConfig+0x140>
 8001014:	6da3      	ldr	r3, [r4, #88]	@ 0x58
 8001016:	00d9      	lsls	r1, r3, #3
 8001018:	d429      	bmi.n	800106e <HAL_RCC_OscConfig+0x31a>
 800101a:	6da3      	ldr	r3, [r4, #88]	@ 0x58
 800101c:	f043 5380 	orr.w	r3, r3, #268435456	@ 0x10000000
 8001020:	65a3      	str	r3, [r4, #88]	@ 0x58
 8001022:	6da3      	ldr	r3, [r4, #88]	@ 0x58
 8001024:	f003 5380 	and.w	r3, r3, #268435456	@ 0x10000000
 8001028:	9301      	str	r3, [sp, #4]
 800102a:	9b01      	ldr	r3, [sp, #4]
 800102c:	f04f 0801 	mov.w	r8, #1
 8001030:	4f84      	ldr	r7, [pc, #528]	@ (8001244 <HAL_RCC_OscConfig+0x4f0>)
 8001032:	683b      	ldr	r3, [r7, #0]
 8001034:	05da      	lsls	r2, r3, #23
 8001036:	d51d      	bpl.n	8001074 <HAL_RCC_OscConfig+0x320>
 8001038:	68ab      	ldr	r3, [r5, #8]
 800103a:	2b01      	cmp	r3, #1
 800103c:	d12b      	bne.n	8001096 <HAL_RCC_OscConfig+0x342>
 800103e:	f8d4 3090 	ldr.w	r3, [r4, #144]	@ 0x90
 8001042:	f043 0301 	orr.w	r3, r3, #1
 8001046:	f8c4 3090 	str.w	r3, [r4, #144]	@ 0x90
 800104a:	f7ff fc27 	bl	800089c <HAL_GetTick>
 800104e:	f241 3988 	movw	r9, #5000	@ 0x1388
 8001052:	4607      	mov	r7, r0
 8001054:	f8d4 3090 	ldr.w	r3, [r4, #144]	@ 0x90
 8001058:	0798      	lsls	r0, r3, #30
 800105a:	d542      	bpl.n	80010e2 <HAL_RCC_OscConfig+0x38e>
 800105c:	f1b8 0f00 	cmp.w	r8, #0
 8001060:	f43f aed7 	beq.w	8000e12 <HAL_RCC_OscConfig+0xbe>
 8001064:	6da3      	ldr	r3, [r4, #88]	@ 0x58
 8001066:	f023 5380 	bic.w	r3, r3, #268435456	@ 0x10000000
 800106a:	65a3      	str	r3, [r4, #88]	@ 0x58
 800106c:	e6d1      	b.n	8000e12 <HAL_RCC_OscConfig+0xbe>
 800106e:	f04f 0800 	mov.w	r8, #0
 8001072:	e7dd      	b.n	8001030 <HAL_RCC_OscConfig+0x2dc>
 8001074:	683b      	ldr	r3, [r7, #0]
 8001076:	f443 7380 	orr.w	r3, r3, #256	@ 0x100
 800107a:	603b      	str	r3, [r7, #0]
 800107c:	f7ff fc0e 	bl	800089c <HAL_GetTick>
 8001080:	4681      	mov	r9, r0
 8001082:	683b      	ldr	r3, [r7, #0]
 8001084:	05db      	lsls	r3, r3, #23
 8001086:	d4d7      	bmi.n	8001038 <HAL_RCC_OscConfig+0x2e4>
 8001088:	f7ff fc08 	bl	800089c <HAL_GetTick>
 800108c:	eba0 0009 	sub.w	r0, r0, r9
 8001090:	2802      	cmp	r0, #2
 8001092:	d9f6      	bls.n	8001082 <HAL_RCC_OscConfig+0x32e>
 8001094:	e6fe      	b.n	8000e94 <HAL_RCC_OscConfig+0x140>
 8001096:	2b05      	cmp	r3, #5
 8001098:	d106      	bne.n	80010a8 <HAL_RCC_OscConfig+0x354>
 800109a:	f8d4 3090 	ldr.w	r3, [r4, #144]	@ 0x90
 800109e:	f043 0304 	orr.w	r3, r3, #4
 80010a2:	f8c4 3090 	str.w	r3, [r4, #144]	@ 0x90
 80010a6:	e7ca      	b.n	800103e <HAL_RCC_OscConfig+0x2ea>
 80010a8:	f8d4 2090 	ldr.w	r2, [r4, #144]	@ 0x90
 80010ac:	f022 0201 	bic.w	r2, r2, #1
 80010b0:	f8c4 2090 	str.w	r2, [r4, #144]	@ 0x90
 80010b4:	f8d4 2090 	ldr.w	r2, [r4, #144]	@ 0x90
 80010b8:	f022 0204 	bic.w	r2, r2, #4
 80010bc:	f8c4 2090 	str.w	r2, [r4, #144]	@ 0x90
 80010c0:	2b00      	cmp	r3, #0
 80010c2:	d1c2      	bne.n	800104a <HAL_RCC_OscConfig+0x2f6>
 80010c4:	f7ff fbea 	bl	800089c <HAL_GetTick>
 80010c8:	f241 3988 	movw	r9, #5000	@ 0x1388
 80010cc:	4607      	mov	r7, r0
 80010ce:	f8d4 3090 	ldr.w	r3, [r4, #144]	@ 0x90
 80010d2:	0799      	lsls	r1, r3, #30
 80010d4:	d5c2      	bpl.n	800105c <HAL_RCC_OscConfig+0x308>
 80010d6:	f7ff fbe1 	bl	800089c <HAL_GetTick>
 80010da:	1bc0      	subs	r0, r0, r7
 80010dc:	4548      	cmp	r0, r9
 80010de:	d9f6      	bls.n	80010ce <HAL_RCC_OscConfig+0x37a>
 80010e0:	e6d8      	b.n	8000e94 <HAL_RCC_OscConfig+0x140>
 80010e2:	f7ff fbdb 	bl	800089c <HAL_GetTick>
 80010e6:	1bc0      	subs	r0, r0, r7
 80010e8:	4548      	cmp	r0, r9
 80010ea:	d9b3      	bls.n	8001054 <HAL_RCC_OscConfig+0x300>
 80010ec:	e6d2      	b.n	8000e94 <HAL_RCC_OscConfig+0x140>
 80010ee:	2b02      	cmp	r3, #2
 80010f0:	f040 808f 	bne.w	8001212 <HAL_RCC_OscConfig+0x4be>
 80010f4:	68e3      	ldr	r3, [r4, #12]
 80010f6:	6aea      	ldr	r2, [r5, #44]	@ 0x2c
 80010f8:	f003 0103 	and.w	r1, r3, #3
 80010fc:	4291      	cmp	r1, r2
 80010fe:	d124      	bne.n	800114a <HAL_RCC_OscConfig+0x3f6>
 8001100:	6b29      	ldr	r1, [r5, #48]	@ 0x30
 8001102:	f003 0270 	and.w	r2, r3, #112	@ 0x70
 8001106:	3901      	subs	r1, #1
 8001108:	ebb2 1f01 	cmp.w	r2, r1, lsl #4
 800110c:	d11d      	bne.n	800114a <HAL_RCC_OscConfig+0x3f6>
 800110e:	6b69      	ldr	r1, [r5, #52]	@ 0x34
 8001110:	f403 42fe 	and.w	r2, r3, #32512	@ 0x7f00
 8001114:	ebb2 2f01 	cmp.w	r2, r1, lsl #8
 8001118:	d117      	bne.n	800114a <HAL_RCC_OscConfig+0x3f6>
 800111a:	6baa      	ldr	r2, [r5, #56]	@ 0x38
 800111c:	3a07      	subs	r2, #7
 800111e:	f403 3100 	and.w	r1, r3, #131072	@ 0x20000
 8001122:	bf18      	it	ne
 8001124:	2201      	movne	r2, #1
 8001126:	4291      	cmp	r1, r2
 8001128:	d10f      	bne.n	800114a <HAL_RCC_OscConfig+0x3f6>
 800112a:	6bea      	ldr	r2, [r5, #60]	@ 0x3c
 800112c:	0852      	lsrs	r2, r2, #1
 800112e:	f403 01c0 	and.w	r1, r3, #6291456	@ 0x600000
 8001132:	3a01      	subs	r2, #1
 8001134:	ebb1 5f42 	cmp.w	r1, r2, lsl #21
 8001138:	d107      	bne.n	800114a <HAL_RCC_OscConfig+0x3f6>
 800113a:	6c2a      	ldr	r2, [r5, #64]	@ 0x40
 800113c:	0852      	lsrs	r2, r2, #1
 800113e:	f003 63c0 	and.w	r3, r3, #100663296	@ 0x6000000
 8001142:	3a01      	subs	r2, #1
 8001144:	ebb3 6f42 	cmp.w	r3, r2, lsl #25
 8001148:	d04a      	beq.n	80011e0 <HAL_RCC_OscConfig+0x48c>
 800114a:	2e0c      	cmp	r6, #12
 800114c:	f43f ae06 	beq.w	8000d5c <HAL_RCC_OscConfig+0x8>
 8001150:	6823      	ldr	r3, [r4, #0]
 8001152:	015a      	lsls	r2, r3, #5
 8001154:	f53f ae02 	bmi.w	8000d5c <HAL_RCC_OscConfig+0x8>
 8001158:	6823      	ldr	r3, [r4, #0]
 800115a:	00db      	lsls	r3, r3, #3
 800115c:	f53f adfe 	bmi.w	8000d5c <HAL_RCC_OscConfig+0x8>
 8001160:	6823      	ldr	r3, [r4, #0]
 8001162:	f023 7380 	bic.w	r3, r3, #16777216	@ 0x1000000
 8001166:	6023      	str	r3, [r4, #0]
 8001168:	f7ff fb98 	bl	800089c <HAL_GetTick>
 800116c:	4606      	mov	r6, r0
 800116e:	6823      	ldr	r3, [r4, #0]
 8001170:	019f      	lsls	r7, r3, #6
 8001172:	d42f      	bmi.n	80011d4 <HAL_RCC_OscConfig+0x480>
 8001174:	68e2      	ldr	r2, [r4, #12]
 8001176:	4b34      	ldr	r3, [pc, #208]	@ (8001248 <HAL_RCC_OscConfig+0x4f4>)
 8001178:	4013      	ands	r3, r2
 800117a:	6aea      	ldr	r2, [r5, #44]	@ 0x2c
 800117c:	4313      	orrs	r3, r2
 800117e:	6b6a      	ldr	r2, [r5, #52]	@ 0x34
 8001180:	ea43 2302 	orr.w	r3, r3, r2, lsl #8
 8001184:	6b2a      	ldr	r2, [r5, #48]	@ 0x30
 8001186:	3a01      	subs	r2, #1
 8001188:	ea43 1302 	orr.w	r3, r3, r2, lsl #4
 800118c:	6baa      	ldr	r2, [r5, #56]	@ 0x38
 800118e:	0912      	lsrs	r2, r2, #4
 8001190:	ea43 4342 	orr.w	r3, r3, r2, lsl #17
 8001194:	6bea      	ldr	r2, [r5, #60]	@ 0x3c
 8001196:	0852      	lsrs	r2, r2, #1
 8001198:	3a01      	subs	r2, #1
 800119a:	ea43 5342 	orr.w	r3, r3, r2, lsl #21
 800119e:	6c2a      	ldr	r2, [r5, #64]	@ 0x40
 80011a0:	0852      	lsrs	r2, r2, #1
 80011a2:	3a01      	subs	r2, #1
 80011a4:	ea43 6342 	orr.w	r3, r3, r2, lsl #25
 80011a8:	60e3      	str	r3, [r4, #12]
 80011aa:	6823      	ldr	r3, [r4, #0]
 80011ac:	f043 7380 	orr.w	r3, r3, #16777216	@ 0x1000000
 80011b0:	6023      	str	r3, [r4, #0]
 80011b2:	68e3      	ldr	r3, [r4, #12]
 80011b4:	f043 7380 	orr.w	r3, r3, #16777216	@ 0x1000000
 80011b8:	60e3      	str	r3, [r4, #12]
 80011ba:	f7ff fb6f 	bl	800089c <HAL_GetTick>
 80011be:	4605      	mov	r5, r0
 80011c0:	6823      	ldr	r3, [r4, #0]
 80011c2:	0198      	lsls	r0, r3, #6
 80011c4:	f53f ae29 	bmi.w	8000e1a <HAL_RCC_OscConfig+0xc6>
 80011c8:	f7ff fb68 	bl	800089c <HAL_GetTick>
 80011cc:	1b40      	subs	r0, r0, r5
 80011ce:	2802      	cmp	r0, #2
 80011d0:	d9f6      	bls.n	80011c0 <HAL_RCC_OscConfig+0x46c>
 80011d2:	e65f      	b.n	8000e94 <HAL_RCC_OscConfig+0x140>
 80011d4:	f7ff fb62 	bl	800089c <HAL_GetTick>
 80011d8:	1b80      	subs	r0, r0, r6
 80011da:	2802      	cmp	r0, #2
 80011dc:	d9c7      	bls.n	800116e <HAL_RCC_OscConfig+0x41a>
 80011de:	e659      	b.n	8000e94 <HAL_RCC_OscConfig+0x140>
 80011e0:	6823      	ldr	r3, [r4, #0]
 80011e2:	0199      	lsls	r1, r3, #6
 80011e4:	f53f ae19 	bmi.w	8000e1a <HAL_RCC_OscConfig+0xc6>
 80011e8:	6823      	ldr	r3, [r4, #0]
 80011ea:	f043 7380 	orr.w	r3, r3, #16777216	@ 0x1000000
 80011ee:	6023      	str	r3, [r4, #0]
 80011f0:	68e3      	ldr	r3, [r4, #12]
 80011f2:	f043 7380 	orr.w	r3, r3, #16777216	@ 0x1000000
 80011f6:	60e3      	str	r3, [r4, #12]
 80011f8:	f7ff fb50 	bl	800089c <HAL_GetTick>
 80011fc:	4605      	mov	r5, r0
 80011fe:	6823      	ldr	r3, [r4, #0]
 8001200:	019a      	lsls	r2, r3, #6
 8001202:	f53f ae0a 	bmi.w	8000e1a <HAL_RCC_OscConfig+0xc6>
 8001206:	f7ff fb49 	bl	800089c <HAL_GetTick>
 800120a:	1b40      	subs	r0, r0, r5
 800120c:	2802      	cmp	r0, #2
 800120e:	d9f6      	bls.n	80011fe <HAL_RCC_OscConfig+0x4aa>
 8001210:	e640      	b.n	8000e94 <HAL_RCC_OscConfig+0x140>
 8001212:	2e0c      	cmp	r6, #12
 8001214:	f43f ada2 	beq.w	8000d5c <HAL_RCC_OscConfig+0x8>
 8001218:	6823      	ldr	r3, [r4, #0]
 800121a:	f023 7380 	bic.w	r3, r3, #16777216	@ 0x1000000
 800121e:	6023      	str	r3, [r4, #0]
 8001220:	f7ff fb3c 	bl	800089c <HAL_GetTick>
 8001224:	4605      	mov	r5, r0
 8001226:	6823      	ldr	r3, [r4, #0]
 8001228:	019b      	lsls	r3, r3, #6
 800122a:	d404      	bmi.n	8001236 <HAL_RCC_OscConfig+0x4e2>
 800122c:	68e2      	ldr	r2, [r4, #12]
 800122e:	4b07      	ldr	r3, [pc, #28]	@ (800124c <HAL_RCC_OscConfig+0x4f8>)
 8001230:	4013      	ands	r3, r2
 8001232:	60e3      	str	r3, [r4, #12]
 8001234:	e5f1      	b.n	8000e1a <HAL_RCC_OscConfig+0xc6>
 8001236:	f7ff fb31 	bl	800089c <HAL_GetTick>
 800123a:	1b40      	subs	r0, r0, r5
 800123c:	2802      	cmp	r0, #2
 800123e:	d9f2      	bls.n	8001226 <HAL_RCC_OscConfig+0x4d2>
 8001240:	e628      	b.n	8000e94 <HAL_RCC_OscConfig+0x140>
 8001242:	bf00      	nop
 8001244:	40007000 	.word	0x40007000
 8001248:	f99d808c 	.word	0xf99d808c
 800124c:	feeefffc 	.word	0xfeeefffc

08001250 <HAL_RCC_ClockConfig>:
 8001250:	e92d 41f0 	stmdb	sp!, {r4, r5, r6, r7, r8, lr}
 8001254:	460d      	mov	r5, r1
 8001256:	4604      	mov	r4, r0
 8001258:	b910      	cbnz	r0, 8001260 <HAL_RCC_ClockConfig+0x10>
 800125a:	2001      	movs	r0, #1
 800125c:	e8bd 81f0 	ldmia.w	sp!, {r4, r5, r6, r7, r8, pc}
 8001260:	4a4b      	ldr	r2, [pc, #300]	@ (8001390 <HAL_RCC_ClockConfig+0x140>)
 8001262:	6813      	ldr	r3, [r2, #0]
 8001264:	f003 0307 	and.w	r3, r3, #7
 8001268:	428b      	cmp	r3, r1
 800126a:	d32c      	bcc.n	80012c6 <HAL_RCC_ClockConfig+0x76>
 800126c:	6821      	ldr	r1, [r4, #0]
 800126e:	0788      	lsls	r0, r1, #30
 8001270:	d434      	bmi.n	80012dc <HAL_RCC_ClockConfig+0x8c>
 8001272:	07c9      	lsls	r1, r1, #31
 8001274:	d43f      	bmi.n	80012f6 <HAL_RCC_ClockConfig+0xa6>
 8001276:	6821      	ldr	r1, [r4, #0]
 8001278:	078a      	lsls	r2, r1, #30
 800127a:	d468      	bmi.n	800134e <HAL_RCC_ClockConfig+0xfe>
 800127c:	4a44      	ldr	r2, [pc, #272]	@ (8001390 <HAL_RCC_ClockConfig+0x140>)
 800127e:	6813      	ldr	r3, [r2, #0]
 8001280:	f003 0307 	and.w	r3, r3, #7
 8001284:	42ab      	cmp	r3, r5
 8001286:	d86f      	bhi.n	8001368 <HAL_RCC_ClockConfig+0x118>
 8001288:	f011 0f04 	tst.w	r1, #4
 800128c:	4d41      	ldr	r5, [pc, #260]	@ (8001394 <HAL_RCC_ClockConfig+0x144>)
 800128e:	d177      	bne.n	8001380 <HAL_RCC_ClockConfig+0x130>
 8001290:	070b      	lsls	r3, r1, #28
 8001292:	d506      	bpl.n	80012a2 <HAL_RCC_ClockConfig+0x52>
 8001294:	68ab      	ldr	r3, [r5, #8]
 8001296:	6922      	ldr	r2, [r4, #16]
 8001298:	f423 5360 	bic.w	r3, r3, #14336	@ 0x3800
 800129c:	ea43 03c2 	orr.w	r3, r3, r2, lsl #3
 80012a0:	60ab      	str	r3, [r5, #8]
 80012a2:	f7ff fd0d 	bl	8000cc0 <HAL_RCC_GetSysClockFreq>
 80012a6:	68ab      	ldr	r3, [r5, #8]
 80012a8:	4a3b      	ldr	r2, [pc, #236]	@ (8001398 <HAL_RCC_ClockConfig+0x148>)
 80012aa:	f3c3 1303 	ubfx	r3, r3, #4, #4
 80012ae:	e8bd 41f0 	ldmia.w	sp!, {r4, r5, r6, r7, r8, lr}
 80012b2:	5cd3      	ldrb	r3, [r2, r3]
 80012b4:	f003 031f 	and.w	r3, r3, #31
 80012b8:	40d8      	lsrs	r0, r3
 80012ba:	4b38      	ldr	r3, [pc, #224]	@ (800139c <HAL_RCC_ClockConfig+0x14c>)
 80012bc:	6018      	str	r0, [r3, #0]
 80012be:	4b38      	ldr	r3, [pc, #224]	@ (80013a0 <HAL_RCC_ClockConfig+0x150>)
 80012c0:	6818      	ldr	r0, [r3, #0]
 80012c2:	f7ff baa3 	b.w	800080c <HAL_InitTick>
 80012c6:	6813      	ldr	r3, [r2, #0]
 80012c8:	f023 0307 	bic.w	r3, r3, #7
 80012cc:	430b      	orrs	r3, r1
 80012ce:	6013      	str	r3, [r2, #0]
 80012d0:	6813      	ldr	r3, [r2, #0]
 80012d2:	f003 0307 	and.w	r3, r3, #7
 80012d6:	428b      	cmp	r3, r1
 80012d8:	d1bf      	bne.n	800125a <HAL_RCC_ClockConfig+0xa>
 80012da:	e7c7      	b.n	800126c <HAL_RCC_ClockConfig+0x1c>
 80012dc:	4a2d      	ldr	r2, [pc, #180]	@ (8001394 <HAL_RCC_ClockConfig+0x144>)
 80012de:	68a0      	ldr	r0, [r4, #8]
 80012e0:	6893      	ldr	r3, [r2, #8]
 80012e2:	f003 03f0 	and.w	r3, r3, #240	@ 0xf0
 80012e6:	4298      	cmp	r0, r3
 80012e8:	bf81      	itttt	hi
 80012ea:	6893      	ldrhi	r3, [r2, #8]
 80012ec:	f023 03f0 	bichi.w	r3, r3, #240	@ 0xf0
 80012f0:	4303      	orrhi	r3, r0
 80012f2:	6093      	strhi	r3, [r2, #8]
 80012f4:	e7bd      	b.n	8001272 <HAL_RCC_ClockConfig+0x22>
 80012f6:	6862      	ldr	r2, [r4, #4]
 80012f8:	4e26      	ldr	r6, [pc, #152]	@ (8001394 <HAL_RCC_ClockConfig+0x144>)
 80012fa:	2a03      	cmp	r2, #3
 80012fc:	6833      	ldr	r3, [r6, #0]
 80012fe:	d11a      	bne.n	8001336 <HAL_RCC_ClockConfig+0xe6>
 8001300:	f013 7f00 	tst.w	r3, #33554432	@ 0x2000000
 8001304:	d0a9      	beq.n	800125a <HAL_RCC_ClockConfig+0xa>
 8001306:	68b3      	ldr	r3, [r6, #8]
 8001308:	f023 0303 	bic.w	r3, r3, #3
 800130c:	4313      	orrs	r3, r2
 800130e:	60b3      	str	r3, [r6, #8]
 8001310:	f7ff fac4 	bl	800089c <HAL_GetTick>
 8001314:	f241 3888 	movw	r8, #5000	@ 0x1388
 8001318:	4607      	mov	r7, r0
 800131a:	68b3      	ldr	r3, [r6, #8]
 800131c:	6862      	ldr	r2, [r4, #4]
 800131e:	f003 030c 	and.w	r3, r3, #12
 8001322:	ebb3 0f82 	cmp.w	r3, r2, lsl #2
 8001326:	d0a6      	beq.n	8001276 <HAL_RCC_ClockConfig+0x26>
 8001328:	f7ff fab8 	bl	800089c <HAL_GetTick>
 800132c:	1bc0      	subs	r0, r0, r7
 800132e:	4540      	cmp	r0, r8
 8001330:	d9f3      	bls.n	800131a <HAL_RCC_ClockConfig+0xca>
 8001332:	2003      	movs	r0, #3
 8001334:	e792      	b.n	800125c <HAL_RCC_ClockConfig+0xc>
 8001336:	2a02      	cmp	r2, #2
 8001338:	d102      	bne.n	8001340 <HAL_RCC_ClockConfig+0xf0>
 800133a:	f413 3f00 	tst.w	r3, #131072	@ 0x20000
 800133e:	e7e1      	b.n	8001304 <HAL_RCC_ClockConfig+0xb4>
 8001340:	b912      	cbnz	r2, 8001348 <HAL_RCC_ClockConfig+0xf8>
 8001342:	f013 0f02 	tst.w	r3, #2
 8001346:	e7dd      	b.n	8001304 <HAL_RCC_ClockConfig+0xb4>
 8001348:	f413 6f80 	tst.w	r3, #1024	@ 0x400
 800134c:	e7da      	b.n	8001304 <HAL_RCC_ClockConfig+0xb4>
 800134e:	4a11      	ldr	r2, [pc, #68]	@ (8001394 <HAL_RCC_ClockConfig+0x144>)
 8001350:	68a0      	ldr	r0, [r4, #8]
 8001352:	6893      	ldr	r3, [r2, #8]
 8001354:	f003 03f0 	and.w	r3, r3, #240	@ 0xf0
 8001358:	4298      	cmp	r0, r3
 800135a:	bf3f      	itttt	cc
 800135c:	6893      	ldrcc	r3, [r2, #8]
 800135e:	f023 03f0 	biccc.w	r3, r3, #240	@ 0xf0
 8001362:	4303      	orrcc	r3, r0
 8001364:	6093      	strcc	r3, [r2, #8]
 8001366:	e789      	b.n	800127c <HAL_RCC_ClockConfig+0x2c>
 8001368:	6813      	ldr	r3, [r2, #0]
 800136a:	f023 0307 	bic.w	r3, r3, #7
 800136e:	432b      	orrs	r3, r5
 8001370:	6013      	str	r3, [r2, #0]
 8001372:	6813      	ldr	r3, [r2, #0]
 8001374:	f003 0307 	and.w	r3, r3, #7
 8001378:	42ab      	cmp	r3, r5
 800137a:	f47f af6e 	bne.w	800125a <HAL_RCC_ClockConfig+0xa>
 800137e:	e783      	b.n	8001288 <HAL_RCC_ClockConfig+0x38>
 8001380:	68ab      	ldr	r3, [r5, #8]
 8001382:	68e2      	ldr	r2, [r4, #12]
 8001384:	f423 63e0 	bic.w	r3, r3, #1792	@ 0x700
 8001388:	4313      	orrs	r3, r2
 800138a:	60ab      	str	r3, [r5, #8]
 800138c:	e780      	b.n	8001290 <HAL_RCC_ClockConfig+0x40>
 800138e:	bf00      	nop
 8001390:	40022000 	.word	0x40022000
 8001394:	40021000 	.word	0x40021000
 8001398:	0800256c 	.word	0x0800256c
 800139c:	20000014 	.word	0x20000014
 80013a0:	2000001c 	.word	0x2000001c

080013a4 <HAL_RCC_GetPCLK1Freq>:
 80013a4:	4b05      	ldr	r3, [pc, #20]	@ (80013bc <HAL_RCC_GetPCLK1Freq+0x18>)
 80013a6:	4a06      	ldr	r2, [pc, #24]	@ (80013c0 <HAL_RCC_GetPCLK1Freq+0x1c>)
 80013a8:	689b      	ldr	r3, [r3, #8]
 80013aa:	f3c3 2302 	ubfx	r3, r3, #8, #3
 80013ae:	5cd3      	ldrb	r3, [r2, r3]
 80013b0:	4a04      	ldr	r2, [pc, #16]	@ (80013c4 <HAL_RCC_GetPCLK1Freq+0x20>)
 80013b2:	6810      	ldr	r0, [r2, #0]
 80013b4:	f003 031f 	and.w	r3, r3, #31
 80013b8:	40d8      	lsrs	r0, r3
 80013ba:	4770      	bx	lr
 80013bc:	40021000 	.word	0x40021000
 80013c0:	08002564 	.word	0x08002564
 80013c4:	20000014 	.word	0x20000014

080013c8 <HAL_RCC_GetPCLK2Freq>:
 80013c8:	4b05      	ldr	r3, [pc, #20]	@ (80013e0 <HAL_RCC_GetPCLK2Freq+0x18>)
 80013ca:	4a06      	ldr	r2, [pc, #24]	@ (80013e4 <HAL_RCC_GetPCLK2Freq+0x1c>)
 80013cc:	689b      	ldr	r3, [r3, #8]
 80013ce:	f3c3 23c2 	ubfx	r3, r3, #11, #3
 80013d2:	5cd3      	ldrb	r3, [r2, r3]
 80013d4:	4a04      	ldr	r2, [pc, #16]	@ (80013e8 <HAL_RCC_GetPCLK2Freq+0x20>)
 80013d6:	6810      	ldr	r0, [r2, #0]
 80013d8:	f003 031f 	and.w	r3, r3, #31
 80013dc:	40d8      	lsrs	r0, r3
 80013de:	4770      	bx	lr
 80013e0:	40021000 	.word	0x40021000
 80013e4:	08002564 	.word	0x08002564
 80013e8:	20000014 	.word	0x20000014

080013ec <RCCEx_PLLSAI1_Config>:
 80013ec:	b5f8      	push	{r3, r4, r5, r6, r7, lr}
 80013ee:	4c41      	ldr	r4, [pc, #260]	@ (80014f4 <RCCEx_PLLSAI1_Config+0x108>)
 80013f0:	68e3      	ldr	r3, [r4, #12]
 80013f2:	079b      	lsls	r3, r3, #30
 80013f4:	4605      	mov	r5, r0
 80013f6:	460e      	mov	r6, r1
 80013f8:	6800      	ldr	r0, [r0, #0]
 80013fa:	d028      	beq.n	800144e <RCCEx_PLLSAI1_Config+0x62>
 80013fc:	68e3      	ldr	r3, [r4, #12]
 80013fe:	f003 0303 	and.w	r3, r3, #3
 8001402:	4283      	cmp	r3, r0
 8001404:	d13a      	bne.n	800147c <RCCEx_PLLSAI1_Config+0x90>
 8001406:	2b00      	cmp	r3, #0
 8001408:	d038      	beq.n	800147c <RCCEx_PLLSAI1_Config+0x90>
 800140a:	68e3      	ldr	r3, [r4, #12]
 800140c:	686a      	ldr	r2, [r5, #4]
 800140e:	f3c3 1302 	ubfx	r3, r3, #4, #3
 8001412:	3301      	adds	r3, #1
 8001414:	4293      	cmp	r3, r2
 8001416:	d131      	bne.n	800147c <RCCEx_PLLSAI1_Config+0x90>
 8001418:	6823      	ldr	r3, [r4, #0]
 800141a:	f023 6380 	bic.w	r3, r3, #67108864	@ 0x4000000
 800141e:	6023      	str	r3, [r4, #0]
 8001420:	f7ff fa3c 	bl	800089c <HAL_GetTick>
 8001424:	4607      	mov	r7, r0
 8001426:	6823      	ldr	r3, [r4, #0]
 8001428:	011a      	lsls	r2, r3, #4
 800142a:	d430      	bmi.n	800148e <RCCEx_PLLSAI1_Config+0xa2>
 800142c:	68aa      	ldr	r2, [r5, #8]
 800142e:	0212      	lsls	r2, r2, #8
 8001430:	b3a6      	cbz	r6, 800149c <RCCEx_PLLSAI1_Config+0xb0>
 8001432:	2e01      	cmp	r6, #1
 8001434:	6923      	ldr	r3, [r4, #16]
 8001436:	d14c      	bne.n	80014d2 <RCCEx_PLLSAI1_Config+0xe6>
 8001438:	6929      	ldr	r1, [r5, #16]
 800143a:	f423 03c0 	bic.w	r3, r3, #6291456	@ 0x600000
 800143e:	0849      	lsrs	r1, r1, #1
 8001440:	f423 43fe 	bic.w	r3, r3, #32512	@ 0x7f00
 8001444:	3901      	subs	r1, #1
 8001446:	4313      	orrs	r3, r2
 8001448:	ea43 5341 	orr.w	r3, r3, r1, lsl #21
 800144c:	e030      	b.n	80014b0 <RCCEx_PLLSAI1_Config+0xc4>
 800144e:	2802      	cmp	r0, #2
 8001450:	d010      	beq.n	8001474 <RCCEx_PLLSAI1_Config+0x88>
 8001452:	2803      	cmp	r0, #3
 8001454:	d014      	beq.n	8001480 <RCCEx_PLLSAI1_Config+0x94>
 8001456:	2801      	cmp	r0, #1
 8001458:	d110      	bne.n	800147c <RCCEx_PLLSAI1_Config+0x90>
 800145a:	6823      	ldr	r3, [r4, #0]
 800145c:	079f      	lsls	r7, r3, #30
 800145e:	d51c      	bpl.n	800149a <RCCEx_PLLSAI1_Config+0xae>
 8001460:	68e3      	ldr	r3, [r4, #12]
 8001462:	686a      	ldr	r2, [r5, #4]
 8001464:	f023 0373 	bic.w	r3, r3, #115	@ 0x73
 8001468:	3a01      	subs	r2, #1
 800146a:	4303      	orrs	r3, r0
 800146c:	ea43 1302 	orr.w	r3, r3, r2, lsl #4
 8001470:	60e3      	str	r3, [r4, #12]
 8001472:	e7d1      	b.n	8001418 <RCCEx_PLLSAI1_Config+0x2c>
 8001474:	6823      	ldr	r3, [r4, #0]
 8001476:	f413 6f80 	tst.w	r3, #1024	@ 0x400
 800147a:	d1f1      	bne.n	8001460 <RCCEx_PLLSAI1_Config+0x74>
 800147c:	2001      	movs	r0, #1
 800147e:	e00c      	b.n	800149a <RCCEx_PLLSAI1_Config+0xae>
 8001480:	6823      	ldr	r3, [r4, #0]
 8001482:	0399      	lsls	r1, r3, #14
 8001484:	d4ec      	bmi.n	8001460 <RCCEx_PLLSAI1_Config+0x74>
 8001486:	6823      	ldr	r3, [r4, #0]
 8001488:	f413 2f80 	tst.w	r3, #262144	@ 0x40000
 800148c:	e7f5      	b.n	800147a <RCCEx_PLLSAI1_Config+0x8e>
 800148e:	f7ff fa05 	bl	800089c <HAL_GetTick>
 8001492:	1bc0      	subs	r0, r0, r7
 8001494:	2802      	cmp	r0, #2
 8001496:	d9c6      	bls.n	8001426 <RCCEx_PLLSAI1_Config+0x3a>
 8001498:	2003      	movs	r0, #3
 800149a:	bdf8      	pop	{r3, r4, r5, r6, r7, pc}
 800149c:	6923      	ldr	r3, [r4, #16]
 800149e:	68e9      	ldr	r1, [r5, #12]
 80014a0:	f423 331f 	bic.w	r3, r3, #162816	@ 0x27c00
 80014a4:	f423 7340 	bic.w	r3, r3, #768	@ 0x300
 80014a8:	0909      	lsrs	r1, r1, #4
 80014aa:	4313      	orrs	r3, r2
 80014ac:	ea43 4341 	orr.w	r3, r3, r1, lsl #17
 80014b0:	6123      	str	r3, [r4, #16]
 80014b2:	6823      	ldr	r3, [r4, #0]
 80014b4:	f043 6380 	orr.w	r3, r3, #67108864	@ 0x4000000
 80014b8:	6023      	str	r3, [r4, #0]
 80014ba:	f7ff f9ef 	bl	800089c <HAL_GetTick>
 80014be:	4606      	mov	r6, r0
 80014c0:	6823      	ldr	r3, [r4, #0]
 80014c2:	011b      	lsls	r3, r3, #4
 80014c4:	d510      	bpl.n	80014e8 <RCCEx_PLLSAI1_Config+0xfc>
 80014c6:	6923      	ldr	r3, [r4, #16]
 80014c8:	69aa      	ldr	r2, [r5, #24]
 80014ca:	4313      	orrs	r3, r2
 80014cc:	6123      	str	r3, [r4, #16]
 80014ce:	2000      	movs	r0, #0
 80014d0:	e7e3      	b.n	800149a <RCCEx_PLLSAI1_Config+0xae>
 80014d2:	6969      	ldr	r1, [r5, #20]
 80014d4:	f023 63c0 	bic.w	r3, r3, #100663296	@ 0x6000000
 80014d8:	0849      	lsrs	r1, r1, #1
 80014da:	f423 43fe 	bic.w	r3, r3, #32512	@ 0x7f00
 80014de:	3901      	subs	r1, #1
 80014e0:	4313      	orrs	r3, r2
 80014e2:	ea43 6341 	orr.w	r3, r3, r1, lsl #25
 80014e6:	e7e3      	b.n	80014b0 <RCCEx_PLLSAI1_Config+0xc4>
 80014e8:	f7ff f9d8 	bl	800089c <HAL_GetTick>
 80014ec:	1b80      	subs	r0, r0, r6
 80014ee:	2802      	cmp	r0, #2
 80014f0:	d9e6      	bls.n	80014c0 <RCCEx_PLLSAI1_Config+0xd4>
 80014f2:	e7d1      	b.n	8001498 <RCCEx_PLLSAI1_Config+0xac>
 80014f4:	40021000 	.word	0x40021000

080014f8 <RCCEx_PLLSAI2_Config>:
 80014f8:	b5f8      	push	{r3, r4, r5, r6, r7, lr}
 80014fa:	4c3b      	ldr	r4, [pc, #236]	@ (80015e8 <RCCEx_PLLSAI2_Config+0xf0>)
 80014fc:	68e3      	ldr	r3, [r4, #12]
 80014fe:	079b      	lsls	r3, r3, #30
 8001500:	4605      	mov	r5, r0
 8001502:	460e      	mov	r6, r1
 8001504:	6800      	ldr	r0, [r0, #0]
 8001506:	d026      	beq.n	8001556 <RCCEx_PLLSAI2_Config+0x5e>
 8001508:	68e3      	ldr	r3, [r4, #12]
 800150a:	f003 0303 	and.w	r3, r3, #3
 800150e:	4283      	cmp	r3, r0
 8001510:	d138      	bne.n	8001584 <RCCEx_PLLSAI2_Config+0x8c>
 8001512:	2b00      	cmp	r3, #0
 8001514:	d036      	beq.n	8001584 <RCCEx_PLLSAI2_Config+0x8c>
 8001516:	68e3      	ldr	r3, [r4, #12]
 8001518:	686a      	ldr	r2, [r5, #4]
 800151a:	f3c3 1302 	ubfx	r3, r3, #4, #3
 800151e:	3301      	adds	r3, #1
 8001520:	4293      	cmp	r3, r2
 8001522:	d12f      	bne.n	8001584 <RCCEx_PLLSAI2_Config+0x8c>
 8001524:	6823      	ldr	r3, [r4, #0]
 8001526:	f023 5380 	bic.w	r3, r3, #268435456	@ 0x10000000
 800152a:	6023      	str	r3, [r4, #0]
 800152c:	f7ff f9b6 	bl	800089c <HAL_GetTick>
 8001530:	4607      	mov	r7, r0
 8001532:	6823      	ldr	r3, [r4, #0]
 8001534:	009a      	lsls	r2, r3, #2
 8001536:	d42e      	bmi.n	8001596 <RCCEx_PLLSAI2_Config+0x9e>
 8001538:	68a9      	ldr	r1, [r5, #8]
 800153a:	0209      	lsls	r1, r1, #8
 800153c:	b396      	cbz	r6, 80015a4 <RCCEx_PLLSAI2_Config+0xac>
 800153e:	6963      	ldr	r3, [r4, #20]
 8001540:	692a      	ldr	r2, [r5, #16]
 8001542:	f023 63c0 	bic.w	r3, r3, #100663296	@ 0x6000000
 8001546:	0852      	lsrs	r2, r2, #1
 8001548:	f423 43fe 	bic.w	r3, r3, #32512	@ 0x7f00
 800154c:	3a01      	subs	r2, #1
 800154e:	430b      	orrs	r3, r1
 8001550:	ea43 6342 	orr.w	r3, r3, r2, lsl #25
 8001554:	e030      	b.n	80015b8 <RCCEx_PLLSAI2_Config+0xc0>
 8001556:	2802      	cmp	r0, #2
 8001558:	d010      	beq.n	800157c <RCCEx_PLLSAI2_Config+0x84>
 800155a:	2803      	cmp	r0, #3
 800155c:	d014      	beq.n	8001588 <RCCEx_PLLSAI2_Config+0x90>
 800155e:	2801      	cmp	r0, #1
 8001560:	d110      	bne.n	8001584 <RCCEx_PLLSAI2_Config+0x8c>
 8001562:	6823      	ldr	r3, [r4, #0]
 8001564:	079f      	lsls	r7, r3, #30
 8001566:	d51c      	bpl.n	80015a2 <RCCEx_PLLSAI2_Config+0xaa>
 8001568:	68e3      	ldr	r3, [r4, #12]
 800156a:	686a      	ldr	r2, [r5, #4]
 800156c:	f023 0373 	bic.w	r3, r3, #115	@ 0x73
 8001570:	3a01      	subs	r2, #1
 8001572:	4303      	orrs	r3, r0
 8001574:	ea43 1302 	orr.w	r3, r3, r2, lsl #4
 8001578:	60e3      	str	r3, [r4, #12]
 800157a:	e7d3      	b.n	8001524 <RCCEx_PLLSAI2_Config+0x2c>
 800157c:	6823      	ldr	r3, [r4, #0]
 800157e:	f413 6f80 	tst.w	r3, #1024	@ 0x400
 8001582:	d1f1      	bne.n	8001568 <RCCEx_PLLSAI2_Config+0x70>
 8001584:	2001      	movs	r0, #1
 8001586:	e00c      	b.n	80015a2 <RCCEx_PLLSAI2_Config+0xaa>
 8001588:	6823      	ldr	r3, [r4, #0]
 800158a:	0399      	lsls	r1, r3, #14
 800158c:	d4ec      	bmi.n	8001568 <RCCEx_PLLSAI2_Config+0x70>
 800158e:	6823      	ldr	r3, [r4, #0]
 8001590:	f413 2f80 	tst.w	r3, #262144	@ 0x40000
 8001594:	e7f5      	b.n	8001582 <RCCEx_PLLSAI2_Config+0x8a>
 8001596:	f7ff f981 	bl	800089c <HAL_GetTick>
 800159a:	1bc0      	subs	r0, r0, r7
 800159c:	2802      	cmp	r0, #2
 800159e:	d9c8      	bls.n	8001532 <RCCEx_PLLSAI2_Config+0x3a>
 80015a0:	2003      	movs	r0, #3
 80015a2:	bdf8      	pop	{r3, r4, r5, r6, r7, pc}
 80015a4:	6963      	ldr	r3, [r4, #20]
 80015a6:	68ea      	ldr	r2, [r5, #12]
 80015a8:	f423 331f 	bic.w	r3, r3, #162816	@ 0x27c00
 80015ac:	f423 7340 	bic.w	r3, r3, #768	@ 0x300
 80015b0:	0912      	lsrs	r2, r2, #4
 80015b2:	430b      	orrs	r3, r1
 80015b4:	ea43 4342 	orr.w	r3, r3, r2, lsl #17
 80015b8:	6163      	str	r3, [r4, #20]
 80015ba:	6823      	ldr	r3, [r4, #0]
 80015bc:	f043 5380 	orr.w	r3, r3, #268435456	@ 0x10000000
 80015c0:	6023      	str	r3, [r4, #0]
 80015c2:	f7ff f96b 	bl	800089c <HAL_GetTick>
 80015c6:	4606      	mov	r6, r0
 80015c8:	6823      	ldr	r3, [r4, #0]
 80015ca:	009b      	lsls	r3, r3, #2
 80015cc:	d505      	bpl.n	80015da <RCCEx_PLLSAI2_Config+0xe2>
 80015ce:	6963      	ldr	r3, [r4, #20]
 80015d0:	696a      	ldr	r2, [r5, #20]
 80015d2:	4313      	orrs	r3, r2
 80015d4:	6163      	str	r3, [r4, #20]
 80015d6:	2000      	movs	r0, #0
 80015d8:	e7e3      	b.n	80015a2 <RCCEx_PLLSAI2_Config+0xaa>
 80015da:	f7ff f95f 	bl	800089c <HAL_GetTick>
 80015de:	1b80      	subs	r0, r0, r6
 80015e0:	2802      	cmp	r0, #2
 80015e2:	d9f1      	bls.n	80015c8 <RCCEx_PLLSAI2_Config+0xd0>
 80015e4:	e7dc      	b.n	80015a0 <RCCEx_PLLSAI2_Config+0xa8>
 80015e6:	bf00      	nop
 80015e8:	40021000 	.word	0x40021000

080015ec <HAL_RCCEx_PeriphCLKConfig>:
 80015ec:	6803      	ldr	r3, [r0, #0]
 80015ee:	e92d 47f3 	stmdb	sp!, {r0, r1, r4, r5, r6, r7, r8, r9, sl, lr}
 80015f2:	051d      	lsls	r5, r3, #20
 80015f4:	4604      	mov	r4, r0
 80015f6:	d528      	bpl.n	800164a <HAL_RCCEx_PeriphCLKConfig+0x5e>
 80015f8:	6e41      	ldr	r1, [r0, #100]	@ 0x64
 80015fa:	f5b1 0f00 	cmp.w	r1, #8388608	@ 0x800000
 80015fe:	d026      	beq.n	800164e <HAL_RCCEx_PeriphCLKConfig+0x62>
 8001600:	d817      	bhi.n	8001632 <HAL_RCCEx_PeriphCLKConfig+0x46>
 8001602:	b351      	cbz	r1, 800165a <HAL_RCCEx_PeriphCLKConfig+0x6e>
 8001604:	f5b1 0f80 	cmp.w	r1, #4194304	@ 0x400000
 8001608:	d02e      	beq.n	8001668 <HAL_RCCEx_PeriphCLKConfig+0x7c>
 800160a:	2501      	movs	r5, #1
 800160c:	6823      	ldr	r3, [r4, #0]
 800160e:	04d8      	lsls	r0, r3, #19
 8001610:	d50d      	bpl.n	800162e <HAL_RCCEx_PeriphCLKConfig+0x42>
 8001612:	6ea1      	ldr	r1, [r4, #104]	@ 0x68
 8001614:	f1b1 7f00 	cmp.w	r1, #33554432	@ 0x2000000
 8001618:	f000 8148 	beq.w	80018ac <HAL_RCCEx_PeriphCLKConfig+0x2c0>
 800161c:	d829      	bhi.n	8001672 <HAL_RCCEx_PeriphCLKConfig+0x86>
 800161e:	2900      	cmp	r1, #0
 8001620:	f000 814a 	beq.w	80018b8 <HAL_RCCEx_PeriphCLKConfig+0x2cc>
 8001624:	f1b1 7f80 	cmp.w	r1, #16777216	@ 0x1000000
 8001628:	f000 814b 	beq.w	80018c2 <HAL_RCCEx_PeriphCLKConfig+0x2d6>
 800162c:	2501      	movs	r5, #1
 800162e:	462f      	mov	r7, r5
 8001630:	e02f      	b.n	8001692 <HAL_RCCEx_PeriphCLKConfig+0xa6>
 8001632:	f5b1 0f40 	cmp.w	r1, #12582912	@ 0xc00000
 8001636:	d1e8      	bne.n	800160a <HAL_RCCEx_PeriphCLKConfig+0x1e>
 8001638:	4aac      	ldr	r2, [pc, #688]	@ (80018ec <HAL_RCCEx_PeriphCLKConfig+0x300>)
 800163a:	6e61      	ldr	r1, [r4, #100]	@ 0x64
 800163c:	f8d2 3088 	ldr.w	r3, [r2, #136]	@ 0x88
 8001640:	f423 0340 	bic.w	r3, r3, #12582912	@ 0xc00000
 8001644:	430b      	orrs	r3, r1
 8001646:	f8c2 3088 	str.w	r3, [r2, #136]	@ 0x88
 800164a:	2500      	movs	r5, #0
 800164c:	e7de      	b.n	800160c <HAL_RCCEx_PeriphCLKConfig+0x20>
 800164e:	4aa7      	ldr	r2, [pc, #668]	@ (80018ec <HAL_RCCEx_PeriphCLKConfig+0x300>)
 8001650:	68d3      	ldr	r3, [r2, #12]
 8001652:	f443 3380 	orr.w	r3, r3, #65536	@ 0x10000
 8001656:	60d3      	str	r3, [r2, #12]
 8001658:	e7ee      	b.n	8001638 <HAL_RCCEx_PeriphCLKConfig+0x4c>
 800165a:	3004      	adds	r0, #4
 800165c:	f7ff fec6 	bl	80013ec <RCCEx_PLLSAI1_Config>
 8001660:	4605      	mov	r5, r0
 8001662:	2800      	cmp	r0, #0
 8001664:	d1d2      	bne.n	800160c <HAL_RCCEx_PeriphCLKConfig+0x20>
 8001666:	e7e7      	b.n	8001638 <HAL_RCCEx_PeriphCLKConfig+0x4c>
 8001668:	2100      	movs	r1, #0
 800166a:	3020      	adds	r0, #32
 800166c:	f7ff ff44 	bl	80014f8 <RCCEx_PLLSAI2_Config>
 8001670:	e7f6      	b.n	8001660 <HAL_RCCEx_PeriphCLKConfig+0x74>
 8001672:	f1b1 7f40 	cmp.w	r1, #50331648	@ 0x3000000
 8001676:	d1d9      	bne.n	800162c <HAL_RCCEx_PeriphCLKConfig+0x40>
 8001678:	462f      	mov	r7, r5
 800167a:	2f00      	cmp	r7, #0
 800167c:	f040 8127 	bne.w	80018ce <HAL_RCCEx_PeriphCLKConfig+0x2e2>
 8001680:	4a9a      	ldr	r2, [pc, #616]	@ (80018ec <HAL_RCCEx_PeriphCLKConfig+0x300>)
 8001682:	6ea1      	ldr	r1, [r4, #104]	@ 0x68
 8001684:	f8d2 3088 	ldr.w	r3, [r2, #136]	@ 0x88
 8001688:	f023 7340 	bic.w	r3, r3, #50331648	@ 0x3000000
 800168c:	430b      	orrs	r3, r1
 800168e:	f8c2 3088 	str.w	r3, [r2, #136]	@ 0x88
 8001692:	6823      	ldr	r3, [r4, #0]
 8001694:	0399      	lsls	r1, r3, #14
 8001696:	d53a      	bpl.n	800170e <HAL_RCCEx_PeriphCLKConfig+0x122>
 8001698:	4e94      	ldr	r6, [pc, #592]	@ (80018ec <HAL_RCCEx_PeriphCLKConfig+0x300>)
 800169a:	6db3      	ldr	r3, [r6, #88]	@ 0x58
 800169c:	00da      	lsls	r2, r3, #3
 800169e:	f100 8118 	bmi.w	80018d2 <HAL_RCCEx_PeriphCLKConfig+0x2e6>
 80016a2:	6db3      	ldr	r3, [r6, #88]	@ 0x58
 80016a4:	f043 5380 	orr.w	r3, r3, #268435456	@ 0x10000000
 80016a8:	65b3      	str	r3, [r6, #88]	@ 0x58
 80016aa:	6db3      	ldr	r3, [r6, #88]	@ 0x58
 80016ac:	f003 5380 	and.w	r3, r3, #268435456	@ 0x10000000
 80016b0:	9301      	str	r3, [sp, #4]
 80016b2:	9b01      	ldr	r3, [sp, #4]
 80016b4:	f04f 0801 	mov.w	r8, #1
 80016b8:	f8df 9234 	ldr.w	r9, [pc, #564]	@ 80018f0 <HAL_RCCEx_PeriphCLKConfig+0x304>
 80016bc:	f8d9 3000 	ldr.w	r3, [r9]
 80016c0:	f443 7380 	orr.w	r3, r3, #256	@ 0x100
 80016c4:	f8c9 3000 	str.w	r3, [r9]
 80016c8:	f7ff f8e8 	bl	800089c <HAL_GetTick>
 80016cc:	4682      	mov	sl, r0
 80016ce:	f8d9 3000 	ldr.w	r3, [r9]
 80016d2:	05db      	lsls	r3, r3, #23
 80016d4:	f140 8100 	bpl.w	80018d8 <HAL_RCCEx_PeriphCLKConfig+0x2ec>
 80016d8:	b98f      	cbnz	r7, 80016fe <HAL_RCCEx_PeriphCLKConfig+0x112>
 80016da:	f8d6 3090 	ldr.w	r3, [r6, #144]	@ 0x90
 80016de:	f8d4 2084 	ldr.w	r2, [r4, #132]	@ 0x84
 80016e2:	f413 7340 	ands.w	r3, r3, #768	@ 0x300
 80016e6:	f040 8105 	bne.w	80018f4 <HAL_RCCEx_PeriphCLKConfig+0x308>
 80016ea:	f8d6 3090 	ldr.w	r3, [r6, #144]	@ 0x90
 80016ee:	f8d4 2084 	ldr.w	r2, [r4, #132]	@ 0x84
 80016f2:	f423 7340 	bic.w	r3, r3, #768	@ 0x300
 80016f6:	4313      	orrs	r3, r2
 80016f8:	f8c6 3090 	str.w	r3, [r6, #144]	@ 0x90
 80016fc:	462f      	mov	r7, r5
 80016fe:	f1b8 0f00 	cmp.w	r8, #0
 8001702:	d003      	beq.n	800170c <HAL_RCCEx_PeriphCLKConfig+0x120>
 8001704:	6db3      	ldr	r3, [r6, #88]	@ 0x58
 8001706:	f023 5380 	bic.w	r3, r3, #268435456	@ 0x10000000
 800170a:	65b3      	str	r3, [r6, #88]	@ 0x58
 800170c:	463d      	mov	r5, r7
 800170e:	6823      	ldr	r3, [r4, #0]
 8001710:	07da      	lsls	r2, r3, #31
 8001712:	d508      	bpl.n	8001726 <HAL_RCCEx_PeriphCLKConfig+0x13a>
 8001714:	4975      	ldr	r1, [pc, #468]	@ (80018ec <HAL_RCCEx_PeriphCLKConfig+0x300>)
 8001716:	6ba0      	ldr	r0, [r4, #56]	@ 0x38
 8001718:	f8d1 2088 	ldr.w	r2, [r1, #136]	@ 0x88
 800171c:	f022 0203 	bic.w	r2, r2, #3
 8001720:	4302      	orrs	r2, r0
 8001722:	f8c1 2088 	str.w	r2, [r1, #136]	@ 0x88
 8001726:	079f      	lsls	r7, r3, #30
 8001728:	d508      	bpl.n	800173c <HAL_RCCEx_PeriphCLKConfig+0x150>
 800172a:	4970      	ldr	r1, [pc, #448]	@ (80018ec <HAL_RCCEx_PeriphCLKConfig+0x300>)
 800172c:	6be0      	ldr	r0, [r4, #60]	@ 0x3c
 800172e:	f8d1 2088 	ldr.w	r2, [r1, #136]	@ 0x88
 8001732:	f022 020c 	bic.w	r2, r2, #12
 8001736:	4302      	orrs	r2, r0
 8001738:	f8c1 2088 	str.w	r2, [r1, #136]	@ 0x88
 800173c:	075e      	lsls	r6, r3, #29
 800173e:	d508      	bpl.n	8001752 <HAL_RCCEx_PeriphCLKConfig+0x166>
 8001740:	496a      	ldr	r1, [pc, #424]	@ (80018ec <HAL_RCCEx_PeriphCLKConfig+0x300>)
 8001742:	6c20      	ldr	r0, [r4, #64]	@ 0x40
 8001744:	f8d1 2088 	ldr.w	r2, [r1, #136]	@ 0x88
 8001748:	f022 0230 	bic.w	r2, r2, #48	@ 0x30
 800174c:	4302      	orrs	r2, r0
 800174e:	f8c1 2088 	str.w	r2, [r1, #136]	@ 0x88
 8001752:	0718      	lsls	r0, r3, #28
 8001754:	d508      	bpl.n	8001768 <HAL_RCCEx_PeriphCLKConfig+0x17c>
 8001756:	4965      	ldr	r1, [pc, #404]	@ (80018ec <HAL_RCCEx_PeriphCLKConfig+0x300>)
 8001758:	6c60      	ldr	r0, [r4, #68]	@ 0x44
 800175a:	f8d1 2088 	ldr.w	r2, [r1, #136]	@ 0x88
 800175e:	f022 02c0 	bic.w	r2, r2, #192	@ 0xc0
 8001762:	4302      	orrs	r2, r0
 8001764:	f8c1 2088 	str.w	r2, [r1, #136]	@ 0x88
 8001768:	06d9      	lsls	r1, r3, #27
 800176a:	d508      	bpl.n	800177e <HAL_RCCEx_PeriphCLKConfig+0x192>
 800176c:	495f      	ldr	r1, [pc, #380]	@ (80018ec <HAL_RCCEx_PeriphCLKConfig+0x300>)
 800176e:	6ca0      	ldr	r0, [r4, #72]	@ 0x48
 8001770:	f8d1 2088 	ldr.w	r2, [r1, #136]	@ 0x88
 8001774:	f422 7240 	bic.w	r2, r2, #768	@ 0x300
 8001778:	4302      	orrs	r2, r0
 800177a:	f8c1 2088 	str.w	r2, [r1, #136]	@ 0x88
 800177e:	069a      	lsls	r2, r3, #26
 8001780:	d508      	bpl.n	8001794 <HAL_RCCEx_PeriphCLKConfig+0x1a8>
 8001782:	495a      	ldr	r1, [pc, #360]	@ (80018ec <HAL_RCCEx_PeriphCLKConfig+0x300>)
 8001784:	6ce0      	ldr	r0, [r4, #76]	@ 0x4c
 8001786:	f8d1 2088 	ldr.w	r2, [r1, #136]	@ 0x88
 800178a:	f422 6240 	bic.w	r2, r2, #3072	@ 0xc00
 800178e:	4302      	orrs	r2, r0
 8001790:	f8c1 2088 	str.w	r2, [r1, #136]	@ 0x88
 8001794:	059f      	lsls	r7, r3, #22
 8001796:	d508      	bpl.n	80017aa <HAL_RCCEx_PeriphCLKConfig+0x1be>
 8001798:	4954      	ldr	r1, [pc, #336]	@ (80018ec <HAL_RCCEx_PeriphCLKConfig+0x300>)
 800179a:	6de0      	ldr	r0, [r4, #92]	@ 0x5c
 800179c:	f8d1 2088 	ldr.w	r2, [r1, #136]	@ 0x88
 80017a0:	f422 2240 	bic.w	r2, r2, #786432	@ 0xc0000
 80017a4:	4302      	orrs	r2, r0
 80017a6:	f8c1 2088 	str.w	r2, [r1, #136]	@ 0x88
 80017aa:	055e      	lsls	r6, r3, #21
 80017ac:	d508      	bpl.n	80017c0 <HAL_RCCEx_PeriphCLKConfig+0x1d4>
 80017ae:	494f      	ldr	r1, [pc, #316]	@ (80018ec <HAL_RCCEx_PeriphCLKConfig+0x300>)
 80017b0:	6e20      	ldr	r0, [r4, #96]	@ 0x60
 80017b2:	f8d1 2088 	ldr.w	r2, [r1, #136]	@ 0x88
 80017b6:	f422 1240 	bic.w	r2, r2, #3145728	@ 0x300000
 80017ba:	4302      	orrs	r2, r0
 80017bc:	f8c1 2088 	str.w	r2, [r1, #136]	@ 0x88
 80017c0:	0658      	lsls	r0, r3, #25
 80017c2:	d508      	bpl.n	80017d6 <HAL_RCCEx_PeriphCLKConfig+0x1ea>
 80017c4:	4949      	ldr	r1, [pc, #292]	@ (80018ec <HAL_RCCEx_PeriphCLKConfig+0x300>)
 80017c6:	6d20      	ldr	r0, [r4, #80]	@ 0x50
 80017c8:	f8d1 2088 	ldr.w	r2, [r1, #136]	@ 0x88
 80017cc:	f422 5240 	bic.w	r2, r2, #12288	@ 0x3000
 80017d0:	4302      	orrs	r2, r0
 80017d2:	f8c1 2088 	str.w	r2, [r1, #136]	@ 0x88
 80017d6:	0619      	lsls	r1, r3, #24
 80017d8:	d508      	bpl.n	80017ec <HAL_RCCEx_PeriphCLKConfig+0x200>
 80017da:	4944      	ldr	r1, [pc, #272]	@ (80018ec <HAL_RCCEx_PeriphCLKConfig+0x300>)
 80017dc:	6d60      	ldr	r0, [r4, #84]	@ 0x54
 80017de:	f8d1 2088 	ldr.w	r2, [r1, #136]	@ 0x88
 80017e2:	f422 4240 	bic.w	r2, r2, #49152	@ 0xc000
 80017e6:	4302      	orrs	r2, r0
 80017e8:	f8c1 2088 	str.w	r2, [r1, #136]	@ 0x88
 80017ec:	05da      	lsls	r2, r3, #23
 80017ee:	d508      	bpl.n	8001802 <HAL_RCCEx_PeriphCLKConfig+0x216>
 80017f0:	493e      	ldr	r1, [pc, #248]	@ (80018ec <HAL_RCCEx_PeriphCLKConfig+0x300>)
 80017f2:	6da0      	ldr	r0, [r4, #88]	@ 0x58
 80017f4:	f8d1 2088 	ldr.w	r2, [r1, #136]	@ 0x88
 80017f8:	f422 3240 	bic.w	r2, r2, #196608	@ 0x30000
 80017fc:	4302      	orrs	r2, r0
 80017fe:	f8c1 2088 	str.w	r2, [r1, #136]	@ 0x88
 8001802:	049f      	lsls	r7, r3, #18
 8001804:	d510      	bpl.n	8001828 <HAL_RCCEx_PeriphCLKConfig+0x23c>
 8001806:	4a39      	ldr	r2, [pc, #228]	@ (80018ec <HAL_RCCEx_PeriphCLKConfig+0x300>)
 8001808:	6ee1      	ldr	r1, [r4, #108]	@ 0x6c
 800180a:	f8d2 3088 	ldr.w	r3, [r2, #136]	@ 0x88
 800180e:	f023 6340 	bic.w	r3, r3, #201326592	@ 0xc000000
 8001812:	430b      	orrs	r3, r1
 8001814:	f1b1 6f00 	cmp.w	r1, #134217728	@ 0x8000000
 8001818:	f8c2 3088 	str.w	r3, [r2, #136]	@ 0x88
 800181c:	f040 8092 	bne.w	8001944 <HAL_RCCEx_PeriphCLKConfig+0x358>
 8001820:	68d3      	ldr	r3, [r2, #12]
 8001822:	f443 1380 	orr.w	r3, r3, #1048576	@ 0x100000
 8001826:	60d3      	str	r3, [r2, #12]
 8001828:	462f      	mov	r7, r5
 800182a:	6823      	ldr	r3, [r4, #0]
 800182c:	031e      	lsls	r6, r3, #12
 800182e:	d510      	bpl.n	8001852 <HAL_RCCEx_PeriphCLKConfig+0x266>
 8001830:	4a2e      	ldr	r2, [pc, #184]	@ (80018ec <HAL_RCCEx_PeriphCLKConfig+0x300>)
 8001832:	6f21      	ldr	r1, [r4, #112]	@ 0x70
 8001834:	f8d2 3088 	ldr.w	r3, [r2, #136]	@ 0x88
 8001838:	f023 6340 	bic.w	r3, r3, #201326592	@ 0xc000000
 800183c:	430b      	orrs	r3, r1
 800183e:	f1b1 6f00 	cmp.w	r1, #134217728	@ 0x8000000
 8001842:	f8c2 3088 	str.w	r3, [r2, #136]	@ 0x88
 8001846:	f040 808a 	bne.w	800195e <HAL_RCCEx_PeriphCLKConfig+0x372>
 800184a:	68d3      	ldr	r3, [r2, #12]
 800184c:	f443 1380 	orr.w	r3, r3, #1048576	@ 0x100000
 8001850:	60d3      	str	r3, [r2, #12]
 8001852:	463e      	mov	r6, r7
 8001854:	6823      	ldr	r3, [r4, #0]
 8001856:	035d      	lsls	r5, r3, #13
 8001858:	d510      	bpl.n	800187c <HAL_RCCEx_PeriphCLKConfig+0x290>
 800185a:	4a24      	ldr	r2, [pc, #144]	@ (80018ec <HAL_RCCEx_PeriphCLKConfig+0x300>)
 800185c:	6f61      	ldr	r1, [r4, #116]	@ 0x74
 800185e:	f8d2 3088 	ldr.w	r3, [r2, #136]	@ 0x88
 8001862:	f023 6340 	bic.w	r3, r3, #201326592	@ 0xc000000
 8001866:	430b      	orrs	r3, r1
 8001868:	f1b1 6f00 	cmp.w	r1, #134217728	@ 0x8000000
 800186c:	f8c2 3088 	str.w	r3, [r2, #136]	@ 0x88
 8001870:	f040 8082 	bne.w	8001978 <HAL_RCCEx_PeriphCLKConfig+0x38c>
 8001874:	68d3      	ldr	r3, [r2, #12]
 8001876:	f443 1380 	orr.w	r3, r3, #1048576	@ 0x100000
 800187a:	60d3      	str	r3, [r2, #12]
 800187c:	4635      	mov	r5, r6
 800187e:	6823      	ldr	r3, [r4, #0]
 8001880:	0458      	lsls	r0, r3, #17
 8001882:	f140 8089 	bpl.w	8001998 <HAL_RCCEx_PeriphCLKConfig+0x3ac>
 8001886:	4919      	ldr	r1, [pc, #100]	@ (80018ec <HAL_RCCEx_PeriphCLKConfig+0x300>)
 8001888:	6fa2      	ldr	r2, [r4, #120]	@ 0x78
 800188a:	f8d1 3088 	ldr.w	r3, [r1, #136]	@ 0x88
 800188e:	f023 5340 	bic.w	r3, r3, #805306368	@ 0x30000000
 8001892:	4313      	orrs	r3, r2
 8001894:	f1b2 5f80 	cmp.w	r2, #268435456	@ 0x10000000
 8001898:	f8c1 3088 	str.w	r3, [r1, #136]	@ 0x88
 800189c:	d179      	bne.n	8001992 <HAL_RCCEx_PeriphCLKConfig+0x3a6>
 800189e:	2102      	movs	r1, #2
 80018a0:	1d20      	adds	r0, r4, #4
 80018a2:	f7ff fda3 	bl	80013ec <RCCEx_PLLSAI1_Config>
 80018a6:	2800      	cmp	r0, #0
 80018a8:	d076      	beq.n	8001998 <HAL_RCCEx_PeriphCLKConfig+0x3ac>
 80018aa:	e076      	b.n	800199a <HAL_RCCEx_PeriphCLKConfig+0x3ae>
 80018ac:	4a0f      	ldr	r2, [pc, #60]	@ (80018ec <HAL_RCCEx_PeriphCLKConfig+0x300>)
 80018ae:	68d3      	ldr	r3, [r2, #12]
 80018b0:	f443 3380 	orr.w	r3, r3, #65536	@ 0x10000
 80018b4:	60d3      	str	r3, [r2, #12]
 80018b6:	e6df      	b.n	8001678 <HAL_RCCEx_PeriphCLKConfig+0x8c>
 80018b8:	1d20      	adds	r0, r4, #4
 80018ba:	f7ff fd97 	bl	80013ec <RCCEx_PLLSAI1_Config>
 80018be:	4607      	mov	r7, r0
 80018c0:	e6db      	b.n	800167a <HAL_RCCEx_PeriphCLKConfig+0x8e>
 80018c2:	2100      	movs	r1, #0
 80018c4:	f104 0020 	add.w	r0, r4, #32
 80018c8:	f7ff fe16 	bl	80014f8 <RCCEx_PLLSAI2_Config>
 80018cc:	e7f7      	b.n	80018be <HAL_RCCEx_PeriphCLKConfig+0x2d2>
 80018ce:	463d      	mov	r5, r7
 80018d0:	e6df      	b.n	8001692 <HAL_RCCEx_PeriphCLKConfig+0xa6>
 80018d2:	f04f 0800 	mov.w	r8, #0
 80018d6:	e6ef      	b.n	80016b8 <HAL_RCCEx_PeriphCLKConfig+0xcc>
 80018d8:	f7fe ffe0 	bl	800089c <HAL_GetTick>
 80018dc:	eba0 000a 	sub.w	r0, r0, sl
 80018e0:	2802      	cmp	r0, #2
 80018e2:	f67f aef4 	bls.w	80016ce <HAL_RCCEx_PeriphCLKConfig+0xe2>
 80018e6:	2703      	movs	r7, #3
 80018e8:	e709      	b.n	80016fe <HAL_RCCEx_PeriphCLKConfig+0x112>
 80018ea:	bf00      	nop
 80018ec:	40021000 	.word	0x40021000
 80018f0:	40007000 	.word	0x40007000
 80018f4:	4293      	cmp	r3, r2
 80018f6:	f43f aef8 	beq.w	80016ea <HAL_RCCEx_PeriphCLKConfig+0xfe>
 80018fa:	f8d6 2090 	ldr.w	r2, [r6, #144]	@ 0x90
 80018fe:	f8d6 3090 	ldr.w	r3, [r6, #144]	@ 0x90
 8001902:	f443 3380 	orr.w	r3, r3, #65536	@ 0x10000
 8001906:	f8c6 3090 	str.w	r3, [r6, #144]	@ 0x90
 800190a:	f8d6 3090 	ldr.w	r3, [r6, #144]	@ 0x90
 800190e:	f422 7140 	bic.w	r1, r2, #768	@ 0x300
 8001912:	f423 3380 	bic.w	r3, r3, #65536	@ 0x10000
 8001916:	07d0      	lsls	r0, r2, #31
 8001918:	f8c6 3090 	str.w	r3, [r6, #144]	@ 0x90
 800191c:	f8c6 1090 	str.w	r1, [r6, #144]	@ 0x90
 8001920:	f57f aee3 	bpl.w	80016ea <HAL_RCCEx_PeriphCLKConfig+0xfe>
 8001924:	f7fe ffba 	bl	800089c <HAL_GetTick>
 8001928:	f241 3988 	movw	r9, #5000	@ 0x1388
 800192c:	4607      	mov	r7, r0
 800192e:	f8d6 3090 	ldr.w	r3, [r6, #144]	@ 0x90
 8001932:	0799      	lsls	r1, r3, #30
 8001934:	f53f aed9 	bmi.w	80016ea <HAL_RCCEx_PeriphCLKConfig+0xfe>
 8001938:	f7fe ffb0 	bl	800089c <HAL_GetTick>
 800193c:	1bc0      	subs	r0, r0, r7
 800193e:	4548      	cmp	r0, r9
 8001940:	d9f5      	bls.n	800192e <HAL_RCCEx_PeriphCLKConfig+0x342>
 8001942:	e7d0      	b.n	80018e6 <HAL_RCCEx_PeriphCLKConfig+0x2fa>
 8001944:	f1b1 6f80 	cmp.w	r1, #67108864	@ 0x4000000
 8001948:	f47f af6e 	bne.w	8001828 <HAL_RCCEx_PeriphCLKConfig+0x23c>
 800194c:	2101      	movs	r1, #1
 800194e:	1d20      	adds	r0, r4, #4
 8001950:	f7ff fd4c 	bl	80013ec <RCCEx_PLLSAI1_Config>
 8001954:	4607      	mov	r7, r0
 8001956:	2800      	cmp	r0, #0
 8001958:	f43f af66 	beq.w	8001828 <HAL_RCCEx_PeriphCLKConfig+0x23c>
 800195c:	e765      	b.n	800182a <HAL_RCCEx_PeriphCLKConfig+0x23e>
 800195e:	f1b1 6f80 	cmp.w	r1, #67108864	@ 0x4000000
 8001962:	f47f af76 	bne.w	8001852 <HAL_RCCEx_PeriphCLKConfig+0x266>
 8001966:	2101      	movs	r1, #1
 8001968:	1d20      	adds	r0, r4, #4
 800196a:	f7ff fd3f 	bl	80013ec <RCCEx_PLLSAI1_Config>
 800196e:	4606      	mov	r6, r0
 8001970:	2800      	cmp	r0, #0
 8001972:	f43f af6e 	beq.w	8001852 <HAL_RCCEx_PeriphCLKConfig+0x266>
 8001976:	e76d      	b.n	8001854 <HAL_RCCEx_PeriphCLKConfig+0x268>
 8001978:	f1b1 6f80 	cmp.w	r1, #67108864	@ 0x4000000
 800197c:	f47f af7e 	bne.w	800187c <HAL_RCCEx_PeriphCLKConfig+0x290>
 8001980:	2101      	movs	r1, #1
 8001982:	1d20      	adds	r0, r4, #4
 8001984:	f7ff fd32 	bl	80013ec <RCCEx_PLLSAI1_Config>
 8001988:	4605      	mov	r5, r0
 800198a:	2800      	cmp	r0, #0
 800198c:	f43f af76 	beq.w	800187c <HAL_RCCEx_PeriphCLKConfig+0x290>
 8001990:	e775      	b.n	800187e <HAL_RCCEx_PeriphCLKConfig+0x292>
 8001992:	f1b2 5f00 	cmp.w	r2, #536870912	@ 0x20000000
 8001996:	d01b      	beq.n	80019d0 <HAL_RCCEx_PeriphCLKConfig+0x3e4>
 8001998:	4628      	mov	r0, r5
 800199a:	6822      	ldr	r2, [r4, #0]
 800199c:	0411      	lsls	r1, r2, #16
 800199e:	d508      	bpl.n	80019b2 <HAL_RCCEx_PeriphCLKConfig+0x3c6>
 80019a0:	490e      	ldr	r1, [pc, #56]	@ (80019dc <HAL_RCCEx_PeriphCLKConfig+0x3f0>)
 80019a2:	6fe5      	ldr	r5, [r4, #124]	@ 0x7c
 80019a4:	f8d1 3088 	ldr.w	r3, [r1, #136]	@ 0x88
 80019a8:	f023 4380 	bic.w	r3, r3, #1073741824	@ 0x40000000
 80019ac:	432b      	orrs	r3, r5
 80019ae:	f8c1 3088 	str.w	r3, [r1, #136]	@ 0x88
 80019b2:	03d3      	lsls	r3, r2, #15
 80019b4:	d509      	bpl.n	80019ca <HAL_RCCEx_PeriphCLKConfig+0x3de>
 80019b6:	4a09      	ldr	r2, [pc, #36]	@ (80019dc <HAL_RCCEx_PeriphCLKConfig+0x3f0>)
 80019b8:	f8d4 1080 	ldr.w	r1, [r4, #128]	@ 0x80
 80019bc:	f8d2 3088 	ldr.w	r3, [r2, #136]	@ 0x88
 80019c0:	f023 4300 	bic.w	r3, r3, #2147483648	@ 0x80000000
 80019c4:	430b      	orrs	r3, r1
 80019c6:	f8c2 3088 	str.w	r3, [r2, #136]	@ 0x88
 80019ca:	b002      	add	sp, #8
 80019cc:	e8bd 87f0 	ldmia.w	sp!, {r4, r5, r6, r7, r8, r9, sl, pc}
 80019d0:	2102      	movs	r1, #2
 80019d2:	f104 0020 	add.w	r0, r4, #32
 80019d6:	f7ff fd8f 	bl	80014f8 <RCCEx_PLLSAI2_Config>
 80019da:	e764      	b.n	80018a6 <HAL_RCCEx_PeriphCLKConfig+0x2ba>
 80019dc:	40021000 	.word	0x40021000

080019e0 <UART_EndRxTransfer>:
 80019e0:	6802      	ldr	r2, [r0, #0]
 80019e2:	e852 3f00 	ldrex	r3, [r2]
 80019e6:	f423 7390 	bic.w	r3, r3, #288	@ 0x120
 80019ea:	e842 3100 	strex	r1, r3, [r2]
 80019ee:	6802      	ldr	r2, [r0, #0]
 80019f0:	2900      	cmp	r1, #0
 80019f2:	d1f5      	bne.n	80019e0 <UART_EndRxTransfer>
 80019f4:	f102 0308 	add.w	r3, r2, #8
 80019f8:	e853 3f00 	ldrex	r3, [r3]
 80019fc:	f023 0301 	bic.w	r3, r3, #1
 8001a00:	f102 0c08 	add.w	ip, r2, #8
 8001a04:	e84c 3100 	strex	r1, r3, [ip]
 8001a08:	2900      	cmp	r1, #0
 8001a0a:	d1f3      	bne.n	80019f4 <UART_EndRxTransfer+0x14>
 8001a0c:	6e03      	ldr	r3, [r0, #96]	@ 0x60
 8001a0e:	2b01      	cmp	r3, #1
 8001a10:	d107      	bne.n	8001a22 <UART_EndRxTransfer+0x42>
 8001a12:	e852 3f00 	ldrex	r3, [r2]
 8001a16:	f023 0310 	bic.w	r3, r3, #16
 8001a1a:	e842 3100 	strex	r1, r3, [r2]
 8001a1e:	2900      	cmp	r1, #0
 8001a20:	d1f7      	bne.n	8001a12 <UART_EndRxTransfer+0x32>
 8001a22:	2320      	movs	r3, #32
 8001a24:	f8c0 3080 	str.w	r3, [r0, #128]	@ 0x80
 8001a28:	2300      	movs	r3, #0
 8001a2a:	6603      	str	r3, [r0, #96]	@ 0x60
 8001a2c:	6683      	str	r3, [r0, #104]	@ 0x68
 8001a2e:	4770      	bx	lr

08001a30 <UART_TxISR_16BIT.part.0>:
 8001a30:	6802      	ldr	r2, [r0, #0]
 8001a32:	e852 3f00 	ldrex	r3, [r2]
 8001a36:	f023 0380 	bic.w	r3, r3, #128	@ 0x80
 8001a3a:	e842 3100 	strex	r1, r3, [r2]
 8001a3e:	6802      	ldr	r2, [r0, #0]
 8001a40:	2900      	cmp	r1, #0
 8001a42:	d1f5      	bne.n	8001a30 <UART_TxISR_16BIT.part.0>
 8001a44:	e852 3f00 	ldrex	r3, [r2]
 8001a48:	f043 0340 	orr.w	r3, r3, #64	@ 0x40
 8001a4c:	e842 3100 	strex	r1, r3, [r2]
 8001a50:	2900      	cmp	r1, #0
 8001a52:	d1f7      	bne.n	8001a44 <UART_TxISR_16BIT.part.0+0x14>
 8001a54:	4770      	bx	lr

08001a56 <UART_TxISR_8BIT>:
 8001a56:	6fc2      	ldr	r2, [r0, #124]	@ 0x7c
 8001a58:	2a21      	cmp	r2, #33	@ 0x21
 8001a5a:	4603      	mov	r3, r0
 8001a5c:	d111      	bne.n	8001a82 <UART_TxISR_8BIT+0x2c>
 8001a5e:	f8b0 2052 	ldrh.w	r2, [r0, #82]	@ 0x52
 8001a62:	b292      	uxth	r2, r2
 8001a64:	b90a      	cbnz	r2, 8001a6a <UART_TxISR_8BIT+0x14>
 8001a66:	f7ff bfe3 	b.w	8001a30 <UART_TxISR_16BIT.part.0>
 8001a6a:	6cc2      	ldr	r2, [r0, #76]	@ 0x4c
 8001a6c:	6801      	ldr	r1, [r0, #0]
 8001a6e:	f812 0b01 	ldrb.w	r0, [r2], #1
 8001a72:	8508      	strh	r0, [r1, #40]	@ 0x28
 8001a74:	64da      	str	r2, [r3, #76]	@ 0x4c
 8001a76:	f8b3 2052 	ldrh.w	r2, [r3, #82]	@ 0x52
 8001a7a:	3a01      	subs	r2, #1
 8001a7c:	b292      	uxth	r2, r2
 8001a7e:	f8a3 2052 	strh.w	r2, [r3, #82]	@ 0x52
 8001a82:	4770      	bx	lr

08001a84 <UART_TxISR_16BIT>:
 8001a84:	6fc2      	ldr	r2, [r0, #124]	@ 0x7c
 8001a86:	2a21      	cmp	r2, #33	@ 0x21
 8001a88:	4603      	mov	r3, r0
 8001a8a:	d113      	bne.n	8001ab4 <UART_TxISR_16BIT+0x30>
 8001a8c:	f8b0 2052 	ldrh.w	r2, [r0, #82]	@ 0x52
 8001a90:	b292      	uxth	r2, r2
 8001a92:	b90a      	cbnz	r2, 8001a98 <UART_TxISR_16BIT+0x14>
 8001a94:	f7ff bfcc 	b.w	8001a30 <UART_TxISR_16BIT.part.0>
 8001a98:	6cda      	ldr	r2, [r3, #76]	@ 0x4c
 8001a9a:	6800      	ldr	r0, [r0, #0]
 8001a9c:	f832 1b02 	ldrh.w	r1, [r2], #2
 8001aa0:	f3c1 0108 	ubfx	r1, r1, #0, #9
 8001aa4:	8501      	strh	r1, [r0, #40]	@ 0x28
 8001aa6:	64da      	str	r2, [r3, #76]	@ 0x4c
 8001aa8:	f8b3 2052 	ldrh.w	r2, [r3, #82]	@ 0x52
 8001aac:	3a01      	subs	r2, #1
 8001aae:	b292      	uxth	r2, r2
 8001ab0:	f8a3 2052 	strh.w	r2, [r3, #82]	@ 0x52
 8001ab4:	4770      	bx	lr
	...

08001ab8 <HAL_UART_Transmit_IT>:
 8001ab8:	4603      	mov	r3, r0
 8001aba:	6fc0      	ldr	r0, [r0, #124]	@ 0x7c
 8001abc:	2820      	cmp	r0, #32
 8001abe:	d122      	bne.n	8001b06 <HAL_UART_Transmit_IT+0x4e>
 8001ac0:	b319      	cbz	r1, 8001b0a <HAL_UART_Transmit_IT+0x52>
 8001ac2:	b312      	cbz	r2, 8001b0a <HAL_UART_Transmit_IT+0x52>
 8001ac4:	f8a3 2052 	strh.w	r2, [r3, #82]	@ 0x52
 8001ac8:	f8a3 2050 	strh.w	r2, [r3, #80]	@ 0x50
 8001acc:	2200      	movs	r2, #0
 8001ace:	f8c3 2084 	str.w	r2, [r3, #132]	@ 0x84
 8001ad2:	2221      	movs	r2, #33	@ 0x21
 8001ad4:	67da      	str	r2, [r3, #124]	@ 0x7c
 8001ad6:	689a      	ldr	r2, [r3, #8]
 8001ad8:	64d9      	str	r1, [r3, #76]	@ 0x4c
 8001ada:	f5b2 5f80 	cmp.w	r2, #4096	@ 0x1000
 8001ade:	d110      	bne.n	8001b02 <HAL_UART_Transmit_IT+0x4a>
 8001ae0:	6918      	ldr	r0, [r3, #16]
 8001ae2:	4a0b      	ldr	r2, [pc, #44]	@ (8001b10 <HAL_UART_Transmit_IT+0x58>)
 8001ae4:	490b      	ldr	r1, [pc, #44]	@ (8001b14 <HAL_UART_Transmit_IT+0x5c>)
 8001ae6:	2800      	cmp	r0, #0
 8001ae8:	bf18      	it	ne
 8001aea:	460a      	movne	r2, r1
 8001aec:	66da      	str	r2, [r3, #108]	@ 0x6c
 8001aee:	6819      	ldr	r1, [r3, #0]
 8001af0:	e851 2f00 	ldrex	r2, [r1]
 8001af4:	f042 0280 	orr.w	r2, r2, #128	@ 0x80
 8001af8:	e841 2000 	strex	r0, r2, [r1]
 8001afc:	2800      	cmp	r0, #0
 8001afe:	d1f6      	bne.n	8001aee <HAL_UART_Transmit_IT+0x36>
 8001b00:	4770      	bx	lr
 8001b02:	4a04      	ldr	r2, [pc, #16]	@ (8001b14 <HAL_UART_Transmit_IT+0x5c>)
 8001b04:	e7f2      	b.n	8001aec <HAL_UART_Transmit_IT+0x34>
 8001b06:	2002      	movs	r0, #2
 8001b08:	4770      	bx	lr
 8001b0a:	2001      	movs	r0, #1
 8001b0c:	4770      	bx	lr
 8001b0e:	bf00      	nop
 8001b10:	08001a85 	.word	0x08001a85
 8001b14:	08001a57 	.word	0x08001a57

08001b18 <HAL_UART_ErrorCallback>:
 8001b18:	4770      	bx	lr

08001b1a <UART_DMAAbortOnError>:
 8001b1a:	b508      	push	{r3, lr}
 8001b1c:	6a80      	ldr	r0, [r0, #40]	@ 0x28
 8001b1e:	2300      	movs	r3, #0
 8001b20:	f8a0 305a 	strh.w	r3, [r0, #90]	@ 0x5a
 8001b24:	f8a0 3052 	strh.w	r3, [r0, #82]	@ 0x52
 8001b28:	f7ff fff6 	bl	8001b18 <HAL_UART_ErrorCallback>
 8001b2c:	bd08      	pop	{r3, pc}

08001b2e <HAL_UARTEx_RxEventCallback>:
 8001b2e:	4770      	bx	lr

08001b30 <HAL_UART_IRQHandler>:
 8001b30:	6803      	ldr	r3, [r0, #0]
 8001b32:	69da      	ldr	r2, [r3, #28]
 8001b34:	6819      	ldr	r1, [r3, #0]
 8001b36:	b570      	push	{r4, r5, r6, lr}
 8001b38:	f640 060f 	movw	r6, #2063	@ 0x80f
 8001b3c:	4232      	tst	r2, r6
 8001b3e:	689d      	ldr	r5, [r3, #8]
 8001b40:	4604      	mov	r4, r0
 8001b42:	d10b      	bne.n	8001b5c <HAL_UART_IRQHandler+0x2c>
 8001b44:	0696      	lsls	r6, r2, #26
 8001b46:	f140 8088 	bpl.w	8001c5a <HAL_UART_IRQHandler+0x12a>
 8001b4a:	068e      	lsls	r6, r1, #26
 8001b4c:	f140 8085 	bpl.w	8001c5a <HAL_UART_IRQHandler+0x12a>
 8001b50:	6e83      	ldr	r3, [r0, #104]	@ 0x68
 8001b52:	2b00      	cmp	r3, #0
 8001b54:	d07b      	beq.n	8001c4e <HAL_UART_IRQHandler+0x11e>
 8001b56:	e8bd 4070 	ldmia.w	sp!, {r4, r5, r6, lr}
 8001b5a:	4718      	bx	r3
 8001b5c:	4e9c      	ldr	r6, [pc, #624]	@ (8001dd0 <HAL_UART_IRQHandler+0x2a0>)
 8001b5e:	f005 0001 	and.w	r0, r5, #1
 8001b62:	400e      	ands	r6, r1
 8001b64:	4306      	orrs	r6, r0
 8001b66:	d078      	beq.n	8001c5a <HAL_UART_IRQHandler+0x12a>
 8001b68:	07d5      	lsls	r5, r2, #31
 8001b6a:	d509      	bpl.n	8001b80 <HAL_UART_IRQHandler+0x50>
 8001b6c:	05ce      	lsls	r6, r1, #23
 8001b6e:	d507      	bpl.n	8001b80 <HAL_UART_IRQHandler+0x50>
 8001b70:	2501      	movs	r5, #1
 8001b72:	621d      	str	r5, [r3, #32]
 8001b74:	f8d4 5084 	ldr.w	r5, [r4, #132]	@ 0x84
 8001b78:	f045 0501 	orr.w	r5, r5, #1
 8001b7c:	f8c4 5084 	str.w	r5, [r4, #132]	@ 0x84
 8001b80:	0795      	lsls	r5, r2, #30
 8001b82:	d508      	bpl.n	8001b96 <HAL_UART_IRQHandler+0x66>
 8001b84:	b138      	cbz	r0, 8001b96 <HAL_UART_IRQHandler+0x66>
 8001b86:	2502      	movs	r5, #2
 8001b88:	621d      	str	r5, [r3, #32]
 8001b8a:	f8d4 5084 	ldr.w	r5, [r4, #132]	@ 0x84
 8001b8e:	f045 0504 	orr.w	r5, r5, #4
 8001b92:	f8c4 5084 	str.w	r5, [r4, #132]	@ 0x84
 8001b96:	0756      	lsls	r6, r2, #29
 8001b98:	d508      	bpl.n	8001bac <HAL_UART_IRQHandler+0x7c>
 8001b9a:	b138      	cbz	r0, 8001bac <HAL_UART_IRQHandler+0x7c>
 8001b9c:	2504      	movs	r5, #4
 8001b9e:	621d      	str	r5, [r3, #32]
 8001ba0:	f8d4 5084 	ldr.w	r5, [r4, #132]	@ 0x84
 8001ba4:	f045 0502 	orr.w	r5, r5, #2
 8001ba8:	f8c4 5084 	str.w	r5, [r4, #132]	@ 0x84
 8001bac:	0715      	lsls	r5, r2, #28
 8001bae:	d50b      	bpl.n	8001bc8 <HAL_UART_IRQHandler+0x98>
 8001bb0:	f001 0520 	and.w	r5, r1, #32
 8001bb4:	4305      	orrs	r5, r0
 8001bb6:	d007      	beq.n	8001bc8 <HAL_UART_IRQHandler+0x98>
 8001bb8:	2008      	movs	r0, #8
 8001bba:	6218      	str	r0, [r3, #32]
 8001bbc:	f8d4 0084 	ldr.w	r0, [r4, #132]	@ 0x84
 8001bc0:	f040 0008 	orr.w	r0, r0, #8
 8001bc4:	f8c4 0084 	str.w	r0, [r4, #132]	@ 0x84
 8001bc8:	0516      	lsls	r6, r2, #20
 8001bca:	d50a      	bpl.n	8001be2 <HAL_UART_IRQHandler+0xb2>
 8001bcc:	014d      	lsls	r5, r1, #5
 8001bce:	d508      	bpl.n	8001be2 <HAL_UART_IRQHandler+0xb2>
 8001bd0:	f44f 6000 	mov.w	r0, #2048	@ 0x800
 8001bd4:	6218      	str	r0, [r3, #32]
 8001bd6:	f8d4 3084 	ldr.w	r3, [r4, #132]	@ 0x84
 8001bda:	f043 0320 	orr.w	r3, r3, #32
 8001bde:	f8c4 3084 	str.w	r3, [r4, #132]	@ 0x84
 8001be2:	f8d4 3084 	ldr.w	r3, [r4, #132]	@ 0x84
 8001be6:	2b00      	cmp	r3, #0
 8001be8:	d031      	beq.n	8001c4e <HAL_UART_IRQHandler+0x11e>
 8001bea:	0690      	lsls	r0, r2, #26
 8001bec:	d505      	bpl.n	8001bfa <HAL_UART_IRQHandler+0xca>
 8001bee:	068a      	lsls	r2, r1, #26
 8001bf0:	d503      	bpl.n	8001bfa <HAL_UART_IRQHandler+0xca>
 8001bf2:	6ea3      	ldr	r3, [r4, #104]	@ 0x68
 8001bf4:	b10b      	cbz	r3, 8001bfa <HAL_UART_IRQHandler+0xca>
 8001bf6:	4620      	mov	r0, r4
 8001bf8:	4798      	blx	r3
 8001bfa:	6826      	ldr	r6, [r4, #0]
 8001bfc:	f8d4 2084 	ldr.w	r2, [r4, #132]	@ 0x84
 8001c00:	68b3      	ldr	r3, [r6, #8]
 8001c02:	f002 0228 	and.w	r2, r2, #40	@ 0x28
 8001c06:	f003 0340 	and.w	r3, r3, #64	@ 0x40
 8001c0a:	ea53 0502 	orrs.w	r5, r3, r2
 8001c0e:	4620      	mov	r0, r4
 8001c10:	d01e      	beq.n	8001c50 <HAL_UART_IRQHandler+0x120>
 8001c12:	f7ff fee5 	bl	80019e0 <UART_EndRxTransfer>
 8001c16:	68b3      	ldr	r3, [r6, #8]
 8001c18:	065b      	lsls	r3, r3, #25
 8001c1a:	d515      	bpl.n	8001c48 <HAL_UART_IRQHandler+0x118>
 8001c1c:	6822      	ldr	r2, [r4, #0]
 8001c1e:	f102 0308 	add.w	r3, r2, #8
 8001c22:	e853 3f00 	ldrex	r3, [r3]
 8001c26:	f023 0340 	bic.w	r3, r3, #64	@ 0x40
 8001c2a:	3208      	adds	r2, #8
 8001c2c:	e842 3100 	strex	r1, r3, [r2]
 8001c30:	2900      	cmp	r1, #0
 8001c32:	d1f3      	bne.n	8001c1c <HAL_UART_IRQHandler+0xec>
 8001c34:	6f60      	ldr	r0, [r4, #116]	@ 0x74
 8001c36:	b138      	cbz	r0, 8001c48 <HAL_UART_IRQHandler+0x118>
 8001c38:	4b66      	ldr	r3, [pc, #408]	@ (8001dd4 <HAL_UART_IRQHandler+0x2a4>)
 8001c3a:	6383      	str	r3, [r0, #56]	@ 0x38
 8001c3c:	f7fe febb 	bl	80009b6 <HAL_DMA_Abort_IT>
 8001c40:	b128      	cbz	r0, 8001c4e <HAL_UART_IRQHandler+0x11e>
 8001c42:	6f60      	ldr	r0, [r4, #116]	@ 0x74
 8001c44:	6b83      	ldr	r3, [r0, #56]	@ 0x38
 8001c46:	e786      	b.n	8001b56 <HAL_UART_IRQHandler+0x26>
 8001c48:	4620      	mov	r0, r4
 8001c4a:	f7ff ff65 	bl	8001b18 <HAL_UART_ErrorCallback>
 8001c4e:	bd70      	pop	{r4, r5, r6, pc}
 8001c50:	f7ff ff62 	bl	8001b18 <HAL_UART_ErrorCallback>
 8001c54:	f8c4 5084 	str.w	r5, [r4, #132]	@ 0x84
 8001c58:	e7f9      	b.n	8001c4e <HAL_UART_IRQHandler+0x11e>
 8001c5a:	6e20      	ldr	r0, [r4, #96]	@ 0x60
 8001c5c:	2801      	cmp	r0, #1
 8001c5e:	f040 808b 	bne.w	8001d78 <HAL_UART_IRQHandler+0x248>
 8001c62:	06d6      	lsls	r6, r2, #27
 8001c64:	f140 8088 	bpl.w	8001d78 <HAL_UART_IRQHandler+0x248>
 8001c68:	06c8      	lsls	r0, r1, #27
 8001c6a:	f140 8085 	bpl.w	8001d78 <HAL_UART_IRQHandler+0x248>
 8001c6e:	2210      	movs	r2, #16
 8001c70:	621a      	str	r2, [r3, #32]
 8001c72:	6899      	ldr	r1, [r3, #8]
 8001c74:	f8b4 2058 	ldrh.w	r2, [r4, #88]	@ 0x58
 8001c78:	0649      	lsls	r1, r1, #25
 8001c7a:	d54f      	bpl.n	8001d1c <HAL_UART_IRQHandler+0x1ec>
 8001c7c:	6f61      	ldr	r1, [r4, #116]	@ 0x74
 8001c7e:	6808      	ldr	r0, [r1, #0]
 8001c80:	6841      	ldr	r1, [r0, #4]
 8001c82:	b289      	uxth	r1, r1
 8001c84:	2900      	cmp	r1, #0
 8001c86:	d041      	beq.n	8001d0c <HAL_UART_IRQHandler+0x1dc>
 8001c88:	4291      	cmp	r1, r2
 8001c8a:	d23f      	bcs.n	8001d0c <HAL_UART_IRQHandler+0x1dc>
 8001c8c:	f8a4 105a 	strh.w	r1, [r4, #90]	@ 0x5a
 8001c90:	6802      	ldr	r2, [r0, #0]
 8001c92:	0692      	lsls	r2, r2, #26
 8001c94:	d42e      	bmi.n	8001cf4 <HAL_UART_IRQHandler+0x1c4>
 8001c96:	e853 2f00 	ldrex	r2, [r3]
 8001c9a:	f422 7280 	bic.w	r2, r2, #256	@ 0x100
 8001c9e:	e843 2100 	strex	r1, r2, [r3]
 8001ca2:	2900      	cmp	r1, #0
 8001ca4:	d1f7      	bne.n	8001c96 <HAL_UART_IRQHandler+0x166>
 8001ca6:	f103 0208 	add.w	r2, r3, #8
 8001caa:	e852 2f00 	ldrex	r2, [r2]
 8001cae:	f022 0201 	bic.w	r2, r2, #1
 8001cb2:	f103 0008 	add.w	r0, r3, #8
 8001cb6:	e840 2100 	strex	r1, r2, [r0]
 8001cba:	2900      	cmp	r1, #0
 8001cbc:	d1f3      	bne.n	8001ca6 <HAL_UART_IRQHandler+0x176>
 8001cbe:	f103 0208 	add.w	r2, r3, #8
 8001cc2:	e852 2f00 	ldrex	r2, [r2]
 8001cc6:	f022 0240 	bic.w	r2, r2, #64	@ 0x40
 8001cca:	f103 0008 	add.w	r0, r3, #8
 8001cce:	e840 2100 	strex	r1, r2, [r0]
 8001cd2:	2900      	cmp	r1, #0
 8001cd4:	d1f3      	bne.n	8001cbe <HAL_UART_IRQHandler+0x18e>
 8001cd6:	2220      	movs	r2, #32
 8001cd8:	f8c4 2080 	str.w	r2, [r4, #128]	@ 0x80
 8001cdc:	6621      	str	r1, [r4, #96]	@ 0x60
 8001cde:	e853 2f00 	ldrex	r2, [r3]
 8001ce2:	f022 0210 	bic.w	r2, r2, #16
 8001ce6:	e843 2100 	strex	r1, r2, [r3]
 8001cea:	2900      	cmp	r1, #0
 8001cec:	d1f7      	bne.n	8001cde <HAL_UART_IRQHandler+0x1ae>
 8001cee:	6f60      	ldr	r0, [r4, #116]	@ 0x74
 8001cf0:	f7fe fe40 	bl	8000974 <HAL_DMA_Abort>
 8001cf4:	2302      	movs	r3, #2
 8001cf6:	6663      	str	r3, [r4, #100]	@ 0x64
 8001cf8:	f8b4 305a 	ldrh.w	r3, [r4, #90]	@ 0x5a
 8001cfc:	f8b4 1058 	ldrh.w	r1, [r4, #88]	@ 0x58
 8001d00:	1ac9      	subs	r1, r1, r3
 8001d02:	b289      	uxth	r1, r1
 8001d04:	4620      	mov	r0, r4
 8001d06:	f7ff ff12 	bl	8001b2e <HAL_UARTEx_RxEventCallback>
 8001d0a:	e7a0      	b.n	8001c4e <HAL_UART_IRQHandler+0x11e>
 8001d0c:	4291      	cmp	r1, r2
 8001d0e:	d19e      	bne.n	8001c4e <HAL_UART_IRQHandler+0x11e>
 8001d10:	6803      	ldr	r3, [r0, #0]
 8001d12:	069b      	lsls	r3, r3, #26
 8001d14:	d59b      	bpl.n	8001c4e <HAL_UART_IRQHandler+0x11e>
 8001d16:	2302      	movs	r3, #2
 8001d18:	6663      	str	r3, [r4, #100]	@ 0x64
 8001d1a:	e7f3      	b.n	8001d04 <HAL_UART_IRQHandler+0x1d4>
 8001d1c:	f8b4 105a 	ldrh.w	r1, [r4, #90]	@ 0x5a
 8001d20:	f8b4 005a 	ldrh.w	r0, [r4, #90]	@ 0x5a
 8001d24:	b280      	uxth	r0, r0
 8001d26:	b289      	uxth	r1, r1
 8001d28:	2800      	cmp	r0, #0
 8001d2a:	d090      	beq.n	8001c4e <HAL_UART_IRQHandler+0x11e>
 8001d2c:	1a51      	subs	r1, r2, r1
 8001d2e:	b289      	uxth	r1, r1
 8001d30:	2900      	cmp	r1, #0
 8001d32:	d08c      	beq.n	8001c4e <HAL_UART_IRQHandler+0x11e>
 8001d34:	e853 2f00 	ldrex	r2, [r3]
 8001d38:	f422 7290 	bic.w	r2, r2, #288	@ 0x120
 8001d3c:	e843 2000 	strex	r0, r2, [r3]
 8001d40:	2800      	cmp	r0, #0
 8001d42:	d1f7      	bne.n	8001d34 <HAL_UART_IRQHandler+0x204>
 8001d44:	f103 0208 	add.w	r2, r3, #8
 8001d48:	e852 2f00 	ldrex	r2, [r2]
 8001d4c:	f022 0201 	bic.w	r2, r2, #1
 8001d50:	f103 0508 	add.w	r5, r3, #8
 8001d54:	e845 2000 	strex	r0, r2, [r5]
 8001d58:	2800      	cmp	r0, #0
 8001d5a:	d1f3      	bne.n	8001d44 <HAL_UART_IRQHandler+0x214>
 8001d5c:	2220      	movs	r2, #32
 8001d5e:	f8c4 2080 	str.w	r2, [r4, #128]	@ 0x80
 8001d62:	66a0      	str	r0, [r4, #104]	@ 0x68
 8001d64:	6620      	str	r0, [r4, #96]	@ 0x60
 8001d66:	e853 2f00 	ldrex	r2, [r3]
 8001d6a:	f022 0210 	bic.w	r2, r2, #16
 8001d6e:	e843 2000 	strex	r0, r2, [r3]
 8001d72:	2800      	cmp	r0, #0
 8001d74:	d1f7      	bne.n	8001d66 <HAL_UART_IRQHandler+0x236>
 8001d76:	e7ce      	b.n	8001d16 <HAL_UART_IRQHandler+0x1e6>
 8001d78:	02d6      	lsls	r6, r2, #11
 8001d7a:	d509      	bpl.n	8001d90 <HAL_UART_IRQHandler+0x260>
 8001d7c:	0268      	lsls	r0, r5, #9
 8001d7e:	d507      	bpl.n	8001d90 <HAL_UART_IRQHandler+0x260>
 8001d80:	f44f 1280 	mov.w	r2, #1048576	@ 0x100000
 8001d84:	4620      	mov	r0, r4
 8001d86:	621a      	str	r2, [r3, #32]
 8001d88:	e8bd 4070 	ldmia.w	sp!, {r4, r5, r6, lr}
 8001d8c:	f000 bb98 	b.w	80024c0 <HAL_UARTEx_WakeupCallback>
 8001d90:	0616      	lsls	r6, r2, #24
 8001d92:	d507      	bpl.n	8001da4 <HAL_UART_IRQHandler+0x274>
 8001d94:	060d      	lsls	r5, r1, #24
 8001d96:	d505      	bpl.n	8001da4 <HAL_UART_IRQHandler+0x274>
 8001d98:	6ee3      	ldr	r3, [r4, #108]	@ 0x6c
 8001d9a:	2b00      	cmp	r3, #0
 8001d9c:	f43f af57 	beq.w	8001c4e <HAL_UART_IRQHandler+0x11e>
 8001da0:	4620      	mov	r0, r4
 8001da2:	e6d8      	b.n	8001b56 <HAL_UART_IRQHandler+0x26>
 8001da4:	0650      	lsls	r0, r2, #25
 8001da6:	f57f af52 	bpl.w	8001c4e <HAL_UART_IRQHandler+0x11e>
 8001daa:	064a      	lsls	r2, r1, #25
 8001dac:	f57f af4f 	bpl.w	8001c4e <HAL_UART_IRQHandler+0x11e>
 8001db0:	e853 2f00 	ldrex	r2, [r3]
 8001db4:	f022 0240 	bic.w	r2, r2, #64	@ 0x40
 8001db8:	e843 2100 	strex	r1, r2, [r3]
 8001dbc:	2900      	cmp	r1, #0
 8001dbe:	d1f7      	bne.n	8001db0 <HAL_UART_IRQHandler+0x280>
 8001dc0:	2320      	movs	r3, #32
 8001dc2:	67e3      	str	r3, [r4, #124]	@ 0x7c
 8001dc4:	66e1      	str	r1, [r4, #108]	@ 0x6c
 8001dc6:	4620      	mov	r0, r4
 8001dc8:	f7fe fb94 	bl	80004f4 <HAL_UART_TxCpltCallback>
 8001dcc:	e73f      	b.n	8001c4e <HAL_UART_IRQHandler+0x11e>
 8001dce:	bf00      	nop
 8001dd0:	04000120 	.word	0x04000120
 8001dd4:	08001b1b 	.word	0x08001b1b

08001dd8 <UART_RxISR_8BIT>:
 8001dd8:	f8d0 1080 	ldr.w	r1, [r0, #128]	@ 0x80
 8001ddc:	6802      	ldr	r2, [r0, #0]
 8001dde:	2922      	cmp	r1, #34	@ 0x22
 8001de0:	b508      	push	{r3, lr}
 8001de2:	f8b0 305c 	ldrh.w	r3, [r0, #92]	@ 0x5c
 8001de6:	d155      	bne.n	8001e94 <UART_RxISR_8BIT+0xbc>
 8001de8:	8c91      	ldrh	r1, [r2, #36]	@ 0x24
 8001dea:	6d42      	ldr	r2, [r0, #84]	@ 0x54
 8001dec:	400b      	ands	r3, r1
 8001dee:	7013      	strb	r3, [r2, #0]
 8001df0:	6d43      	ldr	r3, [r0, #84]	@ 0x54
 8001df2:	3301      	adds	r3, #1
 8001df4:	6543      	str	r3, [r0, #84]	@ 0x54
 8001df6:	f8b0 305a 	ldrh.w	r3, [r0, #90]	@ 0x5a
 8001dfa:	3b01      	subs	r3, #1
 8001dfc:	b29b      	uxth	r3, r3
 8001dfe:	f8a0 305a 	strh.w	r3, [r0, #90]	@ 0x5a
 8001e02:	f8b0 305a 	ldrh.w	r3, [r0, #90]	@ 0x5a
 8001e06:	b29b      	uxth	r3, r3
 8001e08:	2b00      	cmp	r3, #0
 8001e0a:	d142      	bne.n	8001e92 <UART_RxISR_8BIT+0xba>
 8001e0c:	6802      	ldr	r2, [r0, #0]
 8001e0e:	e852 3f00 	ldrex	r3, [r2]
 8001e12:	f423 7390 	bic.w	r3, r3, #288	@ 0x120
 8001e16:	e842 3100 	strex	r1, r3, [r2]
 8001e1a:	6803      	ldr	r3, [r0, #0]
 8001e1c:	2900      	cmp	r1, #0
 8001e1e:	d1f5      	bne.n	8001e0c <UART_RxISR_8BIT+0x34>
 8001e20:	f103 0208 	add.w	r2, r3, #8
 8001e24:	e852 2f00 	ldrex	r2, [r2]
 8001e28:	f022 0201 	bic.w	r2, r2, #1
 8001e2c:	f103 0c08 	add.w	ip, r3, #8
 8001e30:	e84c 2100 	strex	r1, r2, [ip]
 8001e34:	2900      	cmp	r1, #0
 8001e36:	d1f3      	bne.n	8001e20 <UART_RxISR_8BIT+0x48>
 8001e38:	2220      	movs	r2, #32
 8001e3a:	f8c0 2080 	str.w	r2, [r0, #128]	@ 0x80
 8001e3e:	4a18      	ldr	r2, [pc, #96]	@ (8001ea0 <UART_RxISR_8BIT+0xc8>)
 8001e40:	6681      	str	r1, [r0, #104]	@ 0x68
 8001e42:	4293      	cmp	r3, r2
 8001e44:	6641      	str	r1, [r0, #100]	@ 0x64
 8001e46:	d105      	bne.n	8001e54 <UART_RxISR_8BIT+0x7c>
 8001e48:	6e02      	ldr	r2, [r0, #96]	@ 0x60
 8001e4a:	2a01      	cmp	r2, #1
 8001e4c:	d00e      	beq.n	8001e6c <UART_RxISR_8BIT+0x94>
 8001e4e:	f7fe fb59 	bl	8000504 <HAL_UART_RxCpltCallback>
 8001e52:	e01e      	b.n	8001e92 <UART_RxISR_8BIT+0xba>
 8001e54:	685a      	ldr	r2, [r3, #4]
 8001e56:	0211      	lsls	r1, r2, #8
 8001e58:	d5f6      	bpl.n	8001e48 <UART_RxISR_8BIT+0x70>
 8001e5a:	e853 2f00 	ldrex	r2, [r3]
 8001e5e:	f022 6280 	bic.w	r2, r2, #67108864	@ 0x4000000
 8001e62:	e843 2100 	strex	r1, r2, [r3]
 8001e66:	2900      	cmp	r1, #0
 8001e68:	d1f7      	bne.n	8001e5a <UART_RxISR_8BIT+0x82>
 8001e6a:	e7ed      	b.n	8001e48 <UART_RxISR_8BIT+0x70>
 8001e6c:	2200      	movs	r2, #0
 8001e6e:	6602      	str	r2, [r0, #96]	@ 0x60
 8001e70:	e853 2f00 	ldrex	r2, [r3]
 8001e74:	f022 0210 	bic.w	r2, r2, #16
 8001e78:	e843 2100 	strex	r1, r2, [r3]
 8001e7c:	2900      	cmp	r1, #0
 8001e7e:	d1f7      	bne.n	8001e70 <UART_RxISR_8BIT+0x98>
 8001e80:	69da      	ldr	r2, [r3, #28]
 8001e82:	f8b0 1058 	ldrh.w	r1, [r0, #88]	@ 0x58
 8001e86:	06d2      	lsls	r2, r2, #27
 8001e88:	bf44      	itt	mi
 8001e8a:	2210      	movmi	r2, #16
 8001e8c:	621a      	strmi	r2, [r3, #32]
 8001e8e:	f7ff fe4e 	bl	8001b2e <HAL_UARTEx_RxEventCallback>
 8001e92:	bd08      	pop	{r3, pc}
 8001e94:	8b13      	ldrh	r3, [r2, #24]
 8001e96:	b29b      	uxth	r3, r3
 8001e98:	f043 0308 	orr.w	r3, r3, #8
 8001e9c:	8313      	strh	r3, [r2, #24]
 8001e9e:	e7f8      	b.n	8001e92 <UART_RxISR_8BIT+0xba>
 8001ea0:	40008000 	.word	0x40008000

08001ea4 <UART_RxISR_16BIT>:
 8001ea4:	f8d0 2080 	ldr.w	r2, [r0, #128]	@ 0x80
 8001ea8:	f8b0 105c 	ldrh.w	r1, [r0, #92]	@ 0x5c
 8001eac:	2a22      	cmp	r2, #34	@ 0x22
 8001eae:	b508      	push	{r3, lr}
 8001eb0:	6803      	ldr	r3, [r0, #0]
 8001eb2:	d152      	bne.n	8001f5a <UART_RxISR_16BIT+0xb6>
 8001eb4:	8c9a      	ldrh	r2, [r3, #36]	@ 0x24
 8001eb6:	4011      	ands	r1, r2
 8001eb8:	6d42      	ldr	r2, [r0, #84]	@ 0x54
 8001eba:	f822 1b02 	strh.w	r1, [r2], #2
 8001ebe:	6542      	str	r2, [r0, #84]	@ 0x54
 8001ec0:	f8b0 205a 	ldrh.w	r2, [r0, #90]	@ 0x5a
 8001ec4:	3a01      	subs	r2, #1
 8001ec6:	b292      	uxth	r2, r2
 8001ec8:	f8a0 205a 	strh.w	r2, [r0, #90]	@ 0x5a
 8001ecc:	f8b0 205a 	ldrh.w	r2, [r0, #90]	@ 0x5a
 8001ed0:	b292      	uxth	r2, r2
 8001ed2:	2a00      	cmp	r2, #0
 8001ed4:	d140      	bne.n	8001f58 <UART_RxISR_16BIT+0xb4>
 8001ed6:	e853 2f00 	ldrex	r2, [r3]
 8001eda:	f422 7290 	bic.w	r2, r2, #288	@ 0x120
 8001ede:	e843 2100 	strex	r1, r2, [r3]
 8001ee2:	2900      	cmp	r1, #0
 8001ee4:	d1f7      	bne.n	8001ed6 <UART_RxISR_16BIT+0x32>
 8001ee6:	f103 0208 	add.w	r2, r3, #8
 8001eea:	e852 2f00 	ldrex	r2, [r2]
 8001eee:	f022 0201 	bic.w	r2, r2, #1
 8001ef2:	f103 0c08 	add.w	ip, r3, #8
 8001ef6:	e84c 2100 	strex	r1, r2, [ip]
 8001efa:	2900      	cmp	r1, #0
 8001efc:	d1f3      	bne.n	8001ee6 <UART_RxISR_16BIT+0x42>
 8001efe:	2220      	movs	r2, #32
 8001f00:	f8c0 2080 	str.w	r2, [r0, #128]	@ 0x80
 8001f04:	4a18      	ldr	r2, [pc, #96]	@ (8001f68 <UART_RxISR_16BIT+0xc4>)
 8001f06:	6681      	str	r1, [r0, #104]	@ 0x68
 8001f08:	4293      	cmp	r3, r2
 8001f0a:	6641      	str	r1, [r0, #100]	@ 0x64
 8001f0c:	d105      	bne.n	8001f1a <UART_RxISR_16BIT+0x76>
 8001f0e:	6e02      	ldr	r2, [r0, #96]	@ 0x60
 8001f10:	2a01      	cmp	r2, #1
 8001f12:	d00e      	beq.n	8001f32 <UART_RxISR_16BIT+0x8e>
 8001f14:	f7fe faf6 	bl	8000504 <HAL_UART_RxCpltCallback>
 8001f18:	e01e      	b.n	8001f58 <UART_RxISR_16BIT+0xb4>
 8001f1a:	685a      	ldr	r2, [r3, #4]
 8001f1c:	0211      	lsls	r1, r2, #8
 8001f1e:	d5f6      	bpl.n	8001f0e <UART_RxISR_16BIT+0x6a>
 8001f20:	e853 2f00 	ldrex	r2, [r3]
 8001f24:	f022 6280 	bic.w	r2, r2, #67108864	@ 0x4000000
 8001f28:	e843 2100 	strex	r1, r2, [r3]
 8001f2c:	2900      	cmp	r1, #0
 8001f2e:	d1f7      	bne.n	8001f20 <UART_RxISR_16BIT+0x7c>
 8001f30:	e7ed      	b.n	8001f0e <UART_RxISR_16BIT+0x6a>
 8001f32:	2200      	movs	r2, #0
 8001f34:	6602      	str	r2, [r0, #96]	@ 0x60
 8001f36:	e853 2f00 	ldrex	r2, [r3]
 8001f3a:	f022 0210 	bic.w	r2, r2, #16
 8001f3e:	e843 2100 	strex	r1, r2, [r3]
 8001f42:	2900      	cmp	r1, #0
 8001f44:	d1f7      	bne.n	8001f36 <UART_RxISR_16BIT+0x92>
 8001f46:	69da      	ldr	r2, [r3, #28]
 8001f48:	f8b0 1058 	ldrh.w	r1, [r0, #88]	@ 0x58
 8001f4c:	06d2      	lsls	r2, r2, #27
 8001f4e:	bf44      	itt	mi
 8001f50:	2210      	movmi	r2, #16
 8001f52:	621a      	strmi	r2, [r3, #32]
 8001f54:	f7ff fdeb 	bl	8001b2e <HAL_UARTEx_RxEventCallback>
 8001f58:	bd08      	pop	{r3, pc}
 8001f5a:	8b1a      	ldrh	r2, [r3, #24]
 8001f5c:	b292      	uxth	r2, r2
 8001f5e:	f042 0208 	orr.w	r2, r2, #8
 8001f62:	831a      	strh	r2, [r3, #24]
 8001f64:	e7f8      	b.n	8001f58 <UART_RxISR_16BIT+0xb4>
 8001f66:	bf00      	nop
 8001f68:	40008000 	.word	0x40008000

08001f6c <UART_SetConfig>:
 8001f6c:	b538      	push	{r3, r4, r5, lr}
 8001f6e:	4604      	mov	r4, r0
 8001f70:	69c0      	ldr	r0, [r0, #28]
 8001f72:	6921      	ldr	r1, [r4, #16]
 8001f74:	68a2      	ldr	r2, [r4, #8]
 8001f76:	6823      	ldr	r3, [r4, #0]
 8001f78:	430a      	orrs	r2, r1
 8001f7a:	6961      	ldr	r1, [r4, #20]
 8001f7c:	681d      	ldr	r5, [r3, #0]
 8001f7e:	430a      	orrs	r2, r1
 8001f80:	4974      	ldr	r1, [pc, #464]	@ (8002154 <UART_SetConfig+0x1e8>)
 8001f82:	4302      	orrs	r2, r0
 8001f84:	4029      	ands	r1, r5
 8001f86:	430a      	orrs	r2, r1
 8001f88:	601a      	str	r2, [r3, #0]
 8001f8a:	685a      	ldr	r2, [r3, #4]
 8001f8c:	68e1      	ldr	r1, [r4, #12]
 8001f8e:	f422 5240 	bic.w	r2, r2, #12288	@ 0x3000
 8001f92:	430a      	orrs	r2, r1
 8001f94:	605a      	str	r2, [r3, #4]
 8001f96:	4a70      	ldr	r2, [pc, #448]	@ (8002158 <UART_SetConfig+0x1ec>)
 8001f98:	69a1      	ldr	r1, [r4, #24]
 8001f9a:	4293      	cmp	r3, r2
 8001f9c:	bf1c      	itt	ne
 8001f9e:	6a22      	ldrne	r2, [r4, #32]
 8001fa0:	4311      	orrne	r1, r2
 8001fa2:	689a      	ldr	r2, [r3, #8]
 8001fa4:	f422 6230 	bic.w	r2, r2, #2816	@ 0xb00
 8001fa8:	430a      	orrs	r2, r1
 8001faa:	609a      	str	r2, [r3, #8]
 8001fac:	4a6b      	ldr	r2, [pc, #428]	@ (800215c <UART_SetConfig+0x1f0>)
 8001fae:	4293      	cmp	r3, r2
 8001fb0:	d12a      	bne.n	8002008 <UART_SetConfig+0x9c>
 8001fb2:	4b6b      	ldr	r3, [pc, #428]	@ (8002160 <UART_SetConfig+0x1f4>)
 8001fb4:	f8d3 3088 	ldr.w	r3, [r3, #136]	@ 0x88
 8001fb8:	f003 0303 	and.w	r3, r3, #3
 8001fbc:	2b02      	cmp	r3, #2
 8001fbe:	f000 80c1 	beq.w	8002144 <UART_SetConfig+0x1d8>
 8001fc2:	2b03      	cmp	r3, #3
 8001fc4:	f000 80b1 	beq.w	800212a <UART_SetConfig+0x1be>
 8001fc8:	2b01      	cmp	r3, #1
 8001fca:	f000 80b5 	beq.w	8002138 <UART_SetConfig+0x1cc>
 8001fce:	f5b0 4f00 	cmp.w	r0, #32768	@ 0x8000
 8001fd2:	f040 80bc 	bne.w	800214e <UART_SetConfig+0x1e2>
 8001fd6:	f7ff f9f7 	bl	80013c8 <HAL_RCC_GetPCLK2Freq>
 8001fda:	2800      	cmp	r0, #0
 8001fdc:	d06f      	beq.n	80020be <UART_SetConfig+0x152>
 8001fde:	6862      	ldr	r2, [r4, #4]
 8001fe0:	0853      	lsrs	r3, r2, #1
 8001fe2:	eb03 0340 	add.w	r3, r3, r0, lsl #1
 8001fe6:	fbb3 f3f2 	udiv	r3, r3, r2
 8001fea:	f64f 72ef 	movw	r2, #65519	@ 0xffef
 8001fee:	f1a3 0110 	sub.w	r1, r3, #16
 8001ff2:	4291      	cmp	r1, r2
 8001ff4:	d81f      	bhi.n	8002036 <UART_SetConfig+0xca>
 8001ff6:	f023 020f 	bic.w	r2, r3, #15
 8001ffa:	6821      	ldr	r1, [r4, #0]
 8001ffc:	b292      	uxth	r2, r2
 8001ffe:	f3c3 0342 	ubfx	r3, r3, #1, #3
 8002002:	4313      	orrs	r3, r2
 8002004:	60cb      	str	r3, [r1, #12]
 8002006:	e05a      	b.n	80020be <UART_SetConfig+0x152>
 8002008:	4a56      	ldr	r2, [pc, #344]	@ (8002164 <UART_SetConfig+0x1f8>)
 800200a:	4293      	cmp	r3, r2
 800200c:	d115      	bne.n	800203a <UART_SetConfig+0xce>
 800200e:	4b54      	ldr	r3, [pc, #336]	@ (8002160 <UART_SetConfig+0x1f4>)
 8002010:	f8d3 3088 	ldr.w	r3, [r3, #136]	@ 0x88
 8002014:	f003 030c 	and.w	r3, r3, #12
 8002018:	2b08      	cmp	r3, #8
 800201a:	f000 8093 	beq.w	8002144 <UART_SetConfig+0x1d8>
 800201e:	d808      	bhi.n	8002032 <UART_SetConfig+0xc6>
 8002020:	2b00      	cmp	r3, #0
 8002022:	f040 8089 	bne.w	8002138 <UART_SetConfig+0x1cc>
 8002026:	f5b0 4f00 	cmp.w	r0, #32768	@ 0x8000
 800202a:	d169      	bne.n	8002100 <UART_SetConfig+0x194>
 800202c:	f7ff f9ba 	bl	80013a4 <HAL_RCC_GetPCLK1Freq>
 8002030:	e7d3      	b.n	8001fda <UART_SetConfig+0x6e>
 8002032:	2b0c      	cmp	r3, #12
 8002034:	d079      	beq.n	800212a <UART_SetConfig+0x1be>
 8002036:	2001      	movs	r0, #1
 8002038:	e042      	b.n	80020c0 <UART_SetConfig+0x154>
 800203a:	4a4b      	ldr	r2, [pc, #300]	@ (8002168 <UART_SetConfig+0x1fc>)
 800203c:	4293      	cmp	r3, r2
 800203e:	d109      	bne.n	8002054 <UART_SetConfig+0xe8>
 8002040:	4b47      	ldr	r3, [pc, #284]	@ (8002160 <UART_SetConfig+0x1f4>)
 8002042:	f8d3 3088 	ldr.w	r3, [r3, #136]	@ 0x88
 8002046:	f003 0330 	and.w	r3, r3, #48	@ 0x30
 800204a:	2b20      	cmp	r3, #32
 800204c:	d07a      	beq.n	8002144 <UART_SetConfig+0x1d8>
 800204e:	d9e7      	bls.n	8002020 <UART_SetConfig+0xb4>
 8002050:	2b30      	cmp	r3, #48	@ 0x30
 8002052:	e7ef      	b.n	8002034 <UART_SetConfig+0xc8>
 8002054:	4a45      	ldr	r2, [pc, #276]	@ (800216c <UART_SetConfig+0x200>)
 8002056:	4293      	cmp	r3, r2
 8002058:	d109      	bne.n	800206e <UART_SetConfig+0x102>
 800205a:	4b41      	ldr	r3, [pc, #260]	@ (8002160 <UART_SetConfig+0x1f4>)
 800205c:	f8d3 3088 	ldr.w	r3, [r3, #136]	@ 0x88
 8002060:	f003 03c0 	and.w	r3, r3, #192	@ 0xc0
 8002064:	2b80      	cmp	r3, #128	@ 0x80
 8002066:	d06d      	beq.n	8002144 <UART_SetConfig+0x1d8>
 8002068:	d9da      	bls.n	8002020 <UART_SetConfig+0xb4>
 800206a:	2bc0      	cmp	r3, #192	@ 0xc0
 800206c:	e7e2      	b.n	8002034 <UART_SetConfig+0xc8>
 800206e:	4a40      	ldr	r2, [pc, #256]	@ (8002170 <UART_SetConfig+0x204>)
 8002070:	4293      	cmp	r3, r2
 8002072:	d10b      	bne.n	800208c <UART_SetConfig+0x120>
 8002074:	4b3a      	ldr	r3, [pc, #232]	@ (8002160 <UART_SetConfig+0x1f4>)
 8002076:	f8d3 3088 	ldr.w	r3, [r3, #136]	@ 0x88
 800207a:	f403 7340 	and.w	r3, r3, #768	@ 0x300
 800207e:	f5b3 7f00 	cmp.w	r3, #512	@ 0x200
 8002082:	d05f      	beq.n	8002144 <UART_SetConfig+0x1d8>
 8002084:	d9cc      	bls.n	8002020 <UART_SetConfig+0xb4>
 8002086:	f5b3 7f40 	cmp.w	r3, #768	@ 0x300
 800208a:	e7d3      	b.n	8002034 <UART_SetConfig+0xc8>
 800208c:	4a32      	ldr	r2, [pc, #200]	@ (8002158 <UART_SetConfig+0x1ec>)
 800208e:	4293      	cmp	r3, r2
 8002090:	d1d1      	bne.n	8002036 <UART_SetConfig+0xca>
 8002092:	4b33      	ldr	r3, [pc, #204]	@ (8002160 <UART_SetConfig+0x1f4>)
 8002094:	f8d3 3088 	ldr.w	r3, [r3, #136]	@ 0x88
 8002098:	f403 6340 	and.w	r3, r3, #3072	@ 0xc00
 800209c:	f5b3 6f00 	cmp.w	r3, #2048	@ 0x800
 80020a0:	d012      	beq.n	80020c8 <UART_SetConfig+0x15c>
 80020a2:	d803      	bhi.n	80020ac <UART_SetConfig+0x140>
 80020a4:	b943      	cbnz	r3, 80020b8 <UART_SetConfig+0x14c>
 80020a6:	f7ff f97d 	bl	80013a4 <HAL_RCC_GetPCLK1Freq>
 80020aa:	e007      	b.n	80020bc <UART_SetConfig+0x150>
 80020ac:	f5b3 6f40 	cmp.w	r3, #3072	@ 0xc00
 80020b0:	d1c1      	bne.n	8002036 <UART_SetConfig+0xca>
 80020b2:	f44f 4000 	mov.w	r0, #32768	@ 0x8000
 80020b6:	e008      	b.n	80020ca <UART_SetConfig+0x15e>
 80020b8:	f7fe fe02 	bl	8000cc0 <HAL_RCC_GetSysClockFreq>
 80020bc:	b928      	cbnz	r0, 80020ca <UART_SetConfig+0x15e>
 80020be:	2000      	movs	r0, #0
 80020c0:	2300      	movs	r3, #0
 80020c2:	e9c4 331a 	strd	r3, r3, [r4, #104]	@ 0x68
 80020c6:	bd38      	pop	{r3, r4, r5, pc}
 80020c8:	482a      	ldr	r0, [pc, #168]	@ (8002174 <UART_SetConfig+0x208>)
 80020ca:	6862      	ldr	r2, [r4, #4]
 80020cc:	eb02 0342 	add.w	r3, r2, r2, lsl #1
 80020d0:	4283      	cmp	r3, r0
 80020d2:	d8b0      	bhi.n	8002036 <UART_SetConfig+0xca>
 80020d4:	ebb0 3f02 	cmp.w	r0, r2, lsl #12
 80020d8:	d8ad      	bhi.n	8002036 <UART_SetConfig+0xca>
 80020da:	0851      	lsrs	r1, r2, #1
 80020dc:	2300      	movs	r3, #0
 80020de:	468c      	mov	ip, r1
 80020e0:	f44f 7580 	mov.w	r5, #256	@ 0x100
 80020e4:	4619      	mov	r1, r3
 80020e6:	fbe0 c105 	umlal	ip, r1, r0, r5
 80020ea:	4660      	mov	r0, ip
 80020ec:	f7fe f86c 	bl	80001c8 <__aeabi_uldivmod>
 80020f0:	4b21      	ldr	r3, [pc, #132]	@ (8002178 <UART_SetConfig+0x20c>)
 80020f2:	f5a0 7240 	sub.w	r2, r0, #768	@ 0x300
 80020f6:	429a      	cmp	r2, r3
 80020f8:	d89d      	bhi.n	8002036 <UART_SetConfig+0xca>
 80020fa:	6823      	ldr	r3, [r4, #0]
 80020fc:	60d8      	str	r0, [r3, #12]
 80020fe:	e7de      	b.n	80020be <UART_SetConfig+0x152>
 8002100:	f7ff f950 	bl	80013a4 <HAL_RCC_GetPCLK1Freq>
 8002104:	2800      	cmp	r0, #0
 8002106:	d0da      	beq.n	80020be <UART_SetConfig+0x152>
 8002108:	6862      	ldr	r2, [r4, #4]
 800210a:	eb00 0352 	add.w	r3, r0, r2, lsr #1
 800210e:	fbb3 f3f2 	udiv	r3, r3, r2
 8002112:	f64f 72ef 	movw	r2, #65519	@ 0xffef
 8002116:	f1a3 0110 	sub.w	r1, r3, #16
 800211a:	4291      	cmp	r1, r2
 800211c:	d88b      	bhi.n	8002036 <UART_SetConfig+0xca>
 800211e:	6822      	ldr	r2, [r4, #0]
 8002120:	60d3      	str	r3, [r2, #12]
 8002122:	e7cc      	b.n	80020be <UART_SetConfig+0x152>
 8002124:	f7fe fdcc 	bl	8000cc0 <HAL_RCC_GetSysClockFreq>
 8002128:	e7ec      	b.n	8002104 <UART_SetConfig+0x198>
 800212a:	f5b0 4f00 	cmp.w	r0, #32768	@ 0x8000
 800212e:	f43f af56 	beq.w	8001fde <UART_SetConfig+0x72>
 8002132:	f44f 4000 	mov.w	r0, #32768	@ 0x8000
 8002136:	e7e7      	b.n	8002108 <UART_SetConfig+0x19c>
 8002138:	f5b0 4f00 	cmp.w	r0, #32768	@ 0x8000
 800213c:	d1f2      	bne.n	8002124 <UART_SetConfig+0x1b8>
 800213e:	f7fe fdbf 	bl	8000cc0 <HAL_RCC_GetSysClockFreq>
 8002142:	e74a      	b.n	8001fda <UART_SetConfig+0x6e>
 8002144:	f5b0 4f00 	cmp.w	r0, #32768	@ 0x8000
 8002148:	480a      	ldr	r0, [pc, #40]	@ (8002174 <UART_SetConfig+0x208>)
 800214a:	d1dd      	bne.n	8002108 <UART_SetConfig+0x19c>
 800214c:	e747      	b.n	8001fde <UART_SetConfig+0x72>
 800214e:	f7ff f93b 	bl	80013c8 <HAL_RCC_GetPCLK2Freq>
 8002152:	e7d7      	b.n	8002104 <UART_SetConfig+0x198>
 8002154:	efff69f3 	.word	0xefff69f3
 8002158:	40008000 	.word	0x40008000
 800215c:	40013800 	.word	0x40013800
 8002160:	40021000 	.word	0x40021000
 8002164:	40004400 	.word	0x40004400
 8002168:	40004800 	.word	0x40004800
 800216c:	40004c00 	.word	0x40004c00
 8002170:	40005000 	.word	0x40005000
 8002174:	00f42400 	.word	0x00f42400
 8002178:	000ffcff 	.word	0x000ffcff

0800217c <UART_AdvFeatureConfig>:
 800217c:	6a43      	ldr	r3, [r0, #36]	@ 0x24
 800217e:	071a      	lsls	r2, r3, #28
 8002180:	b510      	push	{r4, lr}
 8002182:	d506      	bpl.n	8002192 <UART_AdvFeatureConfig+0x16>
 8002184:	6801      	ldr	r1, [r0, #0]
 8002186:	6b44      	ldr	r4, [r0, #52]	@ 0x34
 8002188:	684a      	ldr	r2, [r1, #4]
 800218a:	f422 4200 	bic.w	r2, r2, #32768	@ 0x8000
 800218e:	4322      	orrs	r2, r4
 8002190:	604a      	str	r2, [r1, #4]
 8002192:	07dc      	lsls	r4, r3, #31
 8002194:	d506      	bpl.n	80021a4 <UART_AdvFeatureConfig+0x28>
 8002196:	6801      	ldr	r1, [r0, #0]
 8002198:	6a84      	ldr	r4, [r0, #40]	@ 0x28
 800219a:	684a      	ldr	r2, [r1, #4]
 800219c:	f422 3200 	bic.w	r2, r2, #131072	@ 0x20000
 80021a0:	4322      	orrs	r2, r4
 80021a2:	604a      	str	r2, [r1, #4]
 80021a4:	0799      	lsls	r1, r3, #30
 80021a6:	d506      	bpl.n	80021b6 <UART_AdvFeatureConfig+0x3a>
 80021a8:	6801      	ldr	r1, [r0, #0]
 80021aa:	6ac4      	ldr	r4, [r0, #44]	@ 0x2c
 80021ac:	684a      	ldr	r2, [r1, #4]
 80021ae:	f422 3280 	bic.w	r2, r2, #65536	@ 0x10000
 80021b2:	4322      	orrs	r2, r4
 80021b4:	604a      	str	r2, [r1, #4]
 80021b6:	075a      	lsls	r2, r3, #29
 80021b8:	d506      	bpl.n	80021c8 <UART_AdvFeatureConfig+0x4c>
 80021ba:	6801      	ldr	r1, [r0, #0]
 80021bc:	6b04      	ldr	r4, [r0, #48]	@ 0x30
 80021be:	684a      	ldr	r2, [r1, #4]
 80021c0:	f422 2280 	bic.w	r2, r2, #262144	@ 0x40000
 80021c4:	4322      	orrs	r2, r4
 80021c6:	604a      	str	r2, [r1, #4]
 80021c8:	06dc      	lsls	r4, r3, #27
 80021ca:	d506      	bpl.n	80021da <UART_AdvFeatureConfig+0x5e>
 80021cc:	6801      	ldr	r1, [r0, #0]
 80021ce:	6b84      	ldr	r4, [r0, #56]	@ 0x38
 80021d0:	688a      	ldr	r2, [r1, #8]
 80021d2:	f422 5280 	bic.w	r2, r2, #4096	@ 0x1000
 80021d6:	4322      	orrs	r2, r4
 80021d8:	608a      	str	r2, [r1, #8]
 80021da:	0699      	lsls	r1, r3, #26
 80021dc:	d506      	bpl.n	80021ec <UART_AdvFeatureConfig+0x70>
 80021de:	6801      	ldr	r1, [r0, #0]
 80021e0:	6bc4      	ldr	r4, [r0, #60]	@ 0x3c
 80021e2:	688a      	ldr	r2, [r1, #8]
 80021e4:	f422 5200 	bic.w	r2, r2, #8192	@ 0x2000
 80021e8:	4322      	orrs	r2, r4
 80021ea:	608a      	str	r2, [r1, #8]
 80021ec:	065a      	lsls	r2, r3, #25
 80021ee:	d50f      	bpl.n	8002210 <UART_AdvFeatureConfig+0x94>
 80021f0:	6801      	ldr	r1, [r0, #0]
 80021f2:	6c04      	ldr	r4, [r0, #64]	@ 0x40
 80021f4:	684a      	ldr	r2, [r1, #4]
 80021f6:	f422 1280 	bic.w	r2, r2, #1048576	@ 0x100000
 80021fa:	4322      	orrs	r2, r4
 80021fc:	f5b4 1f80 	cmp.w	r4, #1048576	@ 0x100000
 8002200:	604a      	str	r2, [r1, #4]
 8002202:	d105      	bne.n	8002210 <UART_AdvFeatureConfig+0x94>
 8002204:	684a      	ldr	r2, [r1, #4]
 8002206:	6c44      	ldr	r4, [r0, #68]	@ 0x44
 8002208:	f422 02c0 	bic.w	r2, r2, #6291456	@ 0x600000
 800220c:	4322      	orrs	r2, r4
 800220e:	604a      	str	r2, [r1, #4]
 8002210:	061b      	lsls	r3, r3, #24
 8002212:	d506      	bpl.n	8002222 <UART_AdvFeatureConfig+0xa6>
 8002214:	6802      	ldr	r2, [r0, #0]
 8002216:	6c81      	ldr	r1, [r0, #72]	@ 0x48
 8002218:	6853      	ldr	r3, [r2, #4]
 800221a:	f423 2300 	bic.w	r3, r3, #524288	@ 0x80000
 800221e:	430b      	orrs	r3, r1
 8002220:	6053      	str	r3, [r2, #4]
 8002222:	bd10      	pop	{r4, pc}

08002224 <UART_WaitOnFlagUntilTimeout>:
 8002224:	e92d 43f8 	stmdb	sp!, {r3, r4, r5, r6, r7, r8, r9, lr}
 8002228:	f8dd 9020 	ldr.w	r9, [sp, #32]
 800222c:	4604      	mov	r4, r0
 800222e:	460d      	mov	r5, r1
 8002230:	4617      	mov	r7, r2
 8002232:	4698      	mov	r8, r3
 8002234:	6822      	ldr	r2, [r4, #0]
 8002236:	69d3      	ldr	r3, [r2, #28]
 8002238:	ea35 0303 	bics.w	r3, r5, r3
 800223c:	bf0c      	ite	eq
 800223e:	2301      	moveq	r3, #1
 8002240:	2300      	movne	r3, #0
 8002242:	42bb      	cmp	r3, r7
 8002244:	d001      	beq.n	800224a <UART_WaitOnFlagUntilTimeout+0x26>
 8002246:	2000      	movs	r0, #0
 8002248:	e022      	b.n	8002290 <UART_WaitOnFlagUntilTimeout+0x6c>
 800224a:	f1b9 3fff 	cmp.w	r9, #4294967295
 800224e:	d0f2      	beq.n	8002236 <UART_WaitOnFlagUntilTimeout+0x12>
 8002250:	f7fe fb24 	bl	800089c <HAL_GetTick>
 8002254:	eba0 0008 	sub.w	r0, r0, r8
 8002258:	4548      	cmp	r0, r9
 800225a:	d829      	bhi.n	80022b0 <UART_WaitOnFlagUntilTimeout+0x8c>
 800225c:	f1b9 0f00 	cmp.w	r9, #0
 8002260:	d026      	beq.n	80022b0 <UART_WaitOnFlagUntilTimeout+0x8c>
 8002262:	6821      	ldr	r1, [r4, #0]
 8002264:	680b      	ldr	r3, [r1, #0]
 8002266:	075a      	lsls	r2, r3, #29
 8002268:	d5e4      	bpl.n	8002234 <UART_WaitOnFlagUntilTimeout+0x10>
 800226a:	2d80      	cmp	r5, #128	@ 0x80
 800226c:	d0e2      	beq.n	8002234 <UART_WaitOnFlagUntilTimeout+0x10>
 800226e:	2d40      	cmp	r5, #64	@ 0x40
 8002270:	d0e0      	beq.n	8002234 <UART_WaitOnFlagUntilTimeout+0x10>
 8002272:	69ce      	ldr	r6, [r1, #28]
 8002274:	f016 0608 	ands.w	r6, r6, #8
 8002278:	d00c      	beq.n	8002294 <UART_WaitOnFlagUntilTimeout+0x70>
 800227a:	2508      	movs	r5, #8
 800227c:	4620      	mov	r0, r4
 800227e:	620d      	str	r5, [r1, #32]
 8002280:	f7ff fbae 	bl	80019e0 <UART_EndRxTransfer>
 8002284:	2300      	movs	r3, #0
 8002286:	f8c4 5084 	str.w	r5, [r4, #132]	@ 0x84
 800228a:	f884 3078 	strb.w	r3, [r4, #120]	@ 0x78
 800228e:	2001      	movs	r0, #1
 8002290:	e8bd 83f8 	ldmia.w	sp!, {r3, r4, r5, r6, r7, r8, r9, pc}
 8002294:	69cb      	ldr	r3, [r1, #28]
 8002296:	051b      	lsls	r3, r3, #20
 8002298:	d5cc      	bpl.n	8002234 <UART_WaitOnFlagUntilTimeout+0x10>
 800229a:	f44f 6300 	mov.w	r3, #2048	@ 0x800
 800229e:	620b      	str	r3, [r1, #32]
 80022a0:	4620      	mov	r0, r4
 80022a2:	f7ff fb9d 	bl	80019e0 <UART_EndRxTransfer>
 80022a6:	2320      	movs	r3, #32
 80022a8:	f8c4 3084 	str.w	r3, [r4, #132]	@ 0x84
 80022ac:	f884 6078 	strb.w	r6, [r4, #120]	@ 0x78
 80022b0:	2003      	movs	r0, #3
 80022b2:	e7ed      	b.n	8002290 <UART_WaitOnFlagUntilTimeout+0x6c>

080022b4 <UART_CheckIdleState>:
 80022b4:	b573      	push	{r0, r1, r4, r5, r6, lr}
 80022b6:	4604      	mov	r4, r0
 80022b8:	2600      	movs	r6, #0
 80022ba:	f8c0 6084 	str.w	r6, [r0, #132]	@ 0x84
 80022be:	f7fe faed 	bl	800089c <HAL_GetTick>
 80022c2:	6823      	ldr	r3, [r4, #0]
 80022c4:	681b      	ldr	r3, [r3, #0]
 80022c6:	071a      	lsls	r2, r3, #28
 80022c8:	4605      	mov	r5, r0
 80022ca:	d51b      	bpl.n	8002304 <UART_CheckIdleState+0x50>
 80022cc:	f06f 437e 	mvn.w	r3, #4261412864	@ 0xfe000000
 80022d0:	9300      	str	r3, [sp, #0]
 80022d2:	4632      	mov	r2, r6
 80022d4:	4603      	mov	r3, r0
 80022d6:	f44f 1100 	mov.w	r1, #2097152	@ 0x200000
 80022da:	4620      	mov	r0, r4
 80022dc:	f7ff ffa2 	bl	8002224 <UART_WaitOnFlagUntilTimeout>
 80022e0:	b180      	cbz	r0, 8002304 <UART_CheckIdleState+0x50>
 80022e2:	6822      	ldr	r2, [r4, #0]
 80022e4:	e852 3f00 	ldrex	r3, [r2]
 80022e8:	f023 0380 	bic.w	r3, r3, #128	@ 0x80
 80022ec:	e842 3100 	strex	r1, r3, [r2]
 80022f0:	2900      	cmp	r1, #0
 80022f2:	d1f6      	bne.n	80022e2 <UART_CheckIdleState+0x2e>
 80022f4:	2320      	movs	r3, #32
 80022f6:	67e3      	str	r3, [r4, #124]	@ 0x7c
 80022f8:	2003      	movs	r0, #3
 80022fa:	2300      	movs	r3, #0
 80022fc:	f884 3078 	strb.w	r3, [r4, #120]	@ 0x78
 8002300:	b002      	add	sp, #8
 8002302:	bd70      	pop	{r4, r5, r6, pc}
 8002304:	6823      	ldr	r3, [r4, #0]
 8002306:	681b      	ldr	r3, [r3, #0]
 8002308:	075b      	lsls	r3, r3, #29
 800230a:	d524      	bpl.n	8002356 <UART_CheckIdleState+0xa2>
 800230c:	f06f 437e 	mvn.w	r3, #4261412864	@ 0xfe000000
 8002310:	9300      	str	r3, [sp, #0]
 8002312:	2200      	movs	r2, #0
 8002314:	462b      	mov	r3, r5
 8002316:	f44f 0180 	mov.w	r1, #4194304	@ 0x400000
 800231a:	4620      	mov	r0, r4
 800231c:	f7ff ff82 	bl	8002224 <UART_WaitOnFlagUntilTimeout>
 8002320:	b1c8      	cbz	r0, 8002356 <UART_CheckIdleState+0xa2>
 8002322:	6822      	ldr	r2, [r4, #0]
 8002324:	e852 3f00 	ldrex	r3, [r2]
 8002328:	f423 7390 	bic.w	r3, r3, #288	@ 0x120
 800232c:	e842 3100 	strex	r1, r3, [r2]
 8002330:	6822      	ldr	r2, [r4, #0]
 8002332:	2900      	cmp	r1, #0
 8002334:	d1f5      	bne.n	8002322 <UART_CheckIdleState+0x6e>
 8002336:	f102 0308 	add.w	r3, r2, #8
 800233a:	e853 3f00 	ldrex	r3, [r3]
 800233e:	f023 0301 	bic.w	r3, r3, #1
 8002342:	f102 0008 	add.w	r0, r2, #8
 8002346:	e840 3100 	strex	r1, r3, [r0]
 800234a:	2900      	cmp	r1, #0
 800234c:	d1f3      	bne.n	8002336 <UART_CheckIdleState+0x82>
 800234e:	2320      	movs	r3, #32
 8002350:	f8c4 3080 	str.w	r3, [r4, #128]	@ 0x80
 8002354:	e7d0      	b.n	80022f8 <UART_CheckIdleState+0x44>
 8002356:	2320      	movs	r3, #32
 8002358:	2000      	movs	r0, #0
 800235a:	67e3      	str	r3, [r4, #124]	@ 0x7c
 800235c:	f8c4 3080 	str.w	r3, [r4, #128]	@ 0x80
 8002360:	6620      	str	r0, [r4, #96]	@ 0x60
 8002362:	6660      	str	r0, [r4, #100]	@ 0x64
 8002364:	e7c9      	b.n	80022fa <UART_CheckIdleState+0x46>

08002366 <HAL_UART_Init>:
 8002366:	b510      	push	{r4, lr}
 8002368:	4604      	mov	r4, r0
 800236a:	b340      	cbz	r0, 80023be <HAL_UART_Init+0x58>
 800236c:	6fc3      	ldr	r3, [r0, #124]	@ 0x7c
 800236e:	b91b      	cbnz	r3, 8002378 <HAL_UART_Init+0x12>
 8002370:	f880 3078 	strb.w	r3, [r0, #120]	@ 0x78
 8002374:	f7fe f9bc 	bl	80006f0 <HAL_UART_MspInit>
 8002378:	6822      	ldr	r2, [r4, #0]
 800237a:	2324      	movs	r3, #36	@ 0x24
 800237c:	67e3      	str	r3, [r4, #124]	@ 0x7c
 800237e:	6813      	ldr	r3, [r2, #0]
 8002380:	f023 0301 	bic.w	r3, r3, #1
 8002384:	6013      	str	r3, [r2, #0]
 8002386:	6a63      	ldr	r3, [r4, #36]	@ 0x24
 8002388:	b113      	cbz	r3, 8002390 <HAL_UART_Init+0x2a>
 800238a:	4620      	mov	r0, r4
 800238c:	f7ff fef6 	bl	800217c <UART_AdvFeatureConfig>
 8002390:	4620      	mov	r0, r4
 8002392:	f7ff fdeb 	bl	8001f6c <UART_SetConfig>
 8002396:	2801      	cmp	r0, #1
 8002398:	d011      	beq.n	80023be <HAL_UART_Init+0x58>
 800239a:	6823      	ldr	r3, [r4, #0]
 800239c:	685a      	ldr	r2, [r3, #4]
 800239e:	f422 4290 	bic.w	r2, r2, #18432	@ 0x4800
 80023a2:	605a      	str	r2, [r3, #4]
 80023a4:	689a      	ldr	r2, [r3, #8]
 80023a6:	f022 022a 	bic.w	r2, r2, #42	@ 0x2a
 80023aa:	609a      	str	r2, [r3, #8]
 80023ac:	681a      	ldr	r2, [r3, #0]
 80023ae:	f042 0201 	orr.w	r2, r2, #1
 80023b2:	4620      	mov	r0, r4
 80023b4:	601a      	str	r2, [r3, #0]
 80023b6:	e8bd 4010 	ldmia.w	sp!, {r4, lr}
 80023ba:	f7ff bf7b 	b.w	80022b4 <UART_CheckIdleState>
 80023be:	2001      	movs	r0, #1
 80023c0:	bd10      	pop	{r4, pc}
	...

080023c4 <UART_Start_Receive_IT>:
 80023c4:	f8a0 2058 	strh.w	r2, [r0, #88]	@ 0x58
 80023c8:	f8a0 205a 	strh.w	r2, [r0, #90]	@ 0x5a
 80023cc:	6882      	ldr	r2, [r0, #8]
 80023ce:	6541      	str	r1, [r0, #84]	@ 0x54
 80023d0:	2300      	movs	r3, #0
 80023d2:	f5b2 5f80 	cmp.w	r2, #4096	@ 0x1000
 80023d6:	6683      	str	r3, [r0, #104]	@ 0x68
 80023d8:	d12c      	bne.n	8002434 <UART_Start_Receive_IT+0x70>
 80023da:	6903      	ldr	r3, [r0, #16]
 80023dc:	2b00      	cmp	r3, #0
 80023de:	f240 13ff 	movw	r3, #511	@ 0x1ff
 80023e2:	bf18      	it	ne
 80023e4:	23ff      	movne	r3, #255	@ 0xff
 80023e6:	f8a0 305c 	strh.w	r3, [r0, #92]	@ 0x5c
 80023ea:	2300      	movs	r3, #0
 80023ec:	f8c0 3084 	str.w	r3, [r0, #132]	@ 0x84
 80023f0:	2322      	movs	r3, #34	@ 0x22
 80023f2:	f8c0 3080 	str.w	r3, [r0, #128]	@ 0x80
 80023f6:	6802      	ldr	r2, [r0, #0]
 80023f8:	f102 0308 	add.w	r3, r2, #8
 80023fc:	e853 3f00 	ldrex	r3, [r3]
 8002400:	f043 0301 	orr.w	r3, r3, #1
 8002404:	3208      	adds	r2, #8
 8002406:	e842 3100 	strex	r1, r3, [r2]
 800240a:	6802      	ldr	r2, [r0, #0]
 800240c:	2900      	cmp	r1, #0
 800240e:	d1f2      	bne.n	80023f6 <UART_Start_Receive_IT+0x32>
 8002410:	6881      	ldr	r1, [r0, #8]
 8002412:	6903      	ldr	r3, [r0, #16]
 8002414:	f5b1 5f80 	cmp.w	r1, #4096	@ 0x1000
 8002418:	d127      	bne.n	800246a <UART_Start_Receive_IT+0xa6>
 800241a:	b1db      	cbz	r3, 8002454 <UART_Start_Receive_IT+0x90>
 800241c:	4b15      	ldr	r3, [pc, #84]	@ (8002474 <UART_Start_Receive_IT+0xb0>)
 800241e:	6683      	str	r3, [r0, #104]	@ 0x68
 8002420:	e852 3f00 	ldrex	r3, [r2]
 8002424:	f443 7390 	orr.w	r3, r3, #288	@ 0x120
 8002428:	e842 3100 	strex	r1, r3, [r2]
 800242c:	2900      	cmp	r1, #0
 800242e:	d1f7      	bne.n	8002420 <UART_Start_Receive_IT+0x5c>
 8002430:	2000      	movs	r0, #0
 8002432:	4770      	bx	lr
 8002434:	b92a      	cbnz	r2, 8002442 <UART_Start_Receive_IT+0x7e>
 8002436:	6903      	ldr	r3, [r0, #16]
 8002438:	2b00      	cmp	r3, #0
 800243a:	bf0c      	ite	eq
 800243c:	23ff      	moveq	r3, #255	@ 0xff
 800243e:	237f      	movne	r3, #127	@ 0x7f
 8002440:	e7d1      	b.n	80023e6 <UART_Start_Receive_IT+0x22>
 8002442:	f1b2 5f80 	cmp.w	r2, #268435456	@ 0x10000000
 8002446:	d1ce      	bne.n	80023e6 <UART_Start_Receive_IT+0x22>
 8002448:	6903      	ldr	r3, [r0, #16]
 800244a:	2b00      	cmp	r3, #0
 800244c:	bf0c      	ite	eq
 800244e:	237f      	moveq	r3, #127	@ 0x7f
 8002450:	233f      	movne	r3, #63	@ 0x3f
 8002452:	e7c8      	b.n	80023e6 <UART_Start_Receive_IT+0x22>
 8002454:	4b08      	ldr	r3, [pc, #32]	@ (8002478 <UART_Start_Receive_IT+0xb4>)
 8002456:	6683      	str	r3, [r0, #104]	@ 0x68
 8002458:	e852 3f00 	ldrex	r3, [r2]
 800245c:	f043 0320 	orr.w	r3, r3, #32
 8002460:	e842 3100 	strex	r1, r3, [r2]
 8002464:	2900      	cmp	r1, #0
 8002466:	d1f7      	bne.n	8002458 <UART_Start_Receive_IT+0x94>
 8002468:	e7e2      	b.n	8002430 <UART_Start_Receive_IT+0x6c>
 800246a:	4902      	ldr	r1, [pc, #8]	@ (8002474 <UART_Start_Receive_IT+0xb0>)
 800246c:	6681      	str	r1, [r0, #104]	@ 0x68
 800246e:	2b00      	cmp	r3, #0
 8002470:	d0f2      	beq.n	8002458 <UART_Start_Receive_IT+0x94>
 8002472:	e7d5      	b.n	8002420 <UART_Start_Receive_IT+0x5c>
 8002474:	08001dd9 	.word	0x08001dd9
 8002478:	08001ea5 	.word	0x08001ea5

0800247c <HAL_UART_Receive_IT>:
 800247c:	f8d0 3080 	ldr.w	r3, [r0, #128]	@ 0x80
 8002480:	2b20      	cmp	r3, #32
 8002482:	b430      	push	{r4, r5}
 8002484:	d115      	bne.n	80024b2 <HAL_UART_Receive_IT+0x36>
 8002486:	b1b9      	cbz	r1, 80024b8 <HAL_UART_Receive_IT+0x3c>
 8002488:	b1b2      	cbz	r2, 80024b8 <HAL_UART_Receive_IT+0x3c>
 800248a:	2300      	movs	r3, #0
 800248c:	6804      	ldr	r4, [r0, #0]
 800248e:	6603      	str	r3, [r0, #96]	@ 0x60
 8002490:	4b0a      	ldr	r3, [pc, #40]	@ (80024bc <HAL_UART_Receive_IT+0x40>)
 8002492:	429c      	cmp	r4, r3
 8002494:	d00a      	beq.n	80024ac <HAL_UART_Receive_IT+0x30>
 8002496:	6863      	ldr	r3, [r4, #4]
 8002498:	021b      	lsls	r3, r3, #8
 800249a:	d507      	bpl.n	80024ac <HAL_UART_Receive_IT+0x30>
 800249c:	e854 3f00 	ldrex	r3, [r4]
 80024a0:	f043 6380 	orr.w	r3, r3, #67108864	@ 0x4000000
 80024a4:	e844 3500 	strex	r5, r3, [r4]
 80024a8:	2d00      	cmp	r5, #0
 80024aa:	d1f7      	bne.n	800249c <HAL_UART_Receive_IT+0x20>
 80024ac:	bc30      	pop	{r4, r5}
 80024ae:	f7ff bf89 	b.w	80023c4 <UART_Start_Receive_IT>
 80024b2:	2002      	movs	r0, #2
 80024b4:	bc30      	pop	{r4, r5}
 80024b6:	4770      	bx	lr
 80024b8:	2001      	movs	r0, #1
 80024ba:	e7fb      	b.n	80024b4 <HAL_UART_Receive_IT+0x38>
 80024bc:	40008000 	.word	0x40008000

080024c0 <HAL_UARTEx_WakeupCallback>:
 80024c0:	4770      	bx	lr

080024c2 <memset>:
 80024c2:	4402      	add	r2, r0
 80024c4:	4603      	mov	r3, r0
 80024c6:	4293      	cmp	r3, r2
 80024c8:	d100      	bne.n	80024cc <memset+0xa>
 80024ca:	4770      	bx	lr
 80024cc:	f803 1b01 	strb.w	r1, [r3], #1
 80024d0:	e7f9      	b.n	80024c6 <memset+0x4>
	...

080024d4 <__libc_init_array>:
 80024d4:	b570      	push	{r4, r5, r6, lr}
 80024d6:	4d0d      	ldr	r5, [pc, #52]	@ (800250c <__libc_init_array+0x38>)
 80024d8:	4c0d      	ldr	r4, [pc, #52]	@ (8002510 <__libc_init_array+0x3c>)
 80024da:	1b64      	subs	r4, r4, r5
 80024dc:	10a4      	asrs	r4, r4, #2
 80024de:	2600      	movs	r6, #0
 80024e0:	42a6      	cmp	r6, r4
 80024e2:	d109      	bne.n	80024f8 <__libc_init_array+0x24>
 80024e4:	4d0b      	ldr	r5, [pc, #44]	@ (8002514 <__libc_init_array+0x40>)
 80024e6:	4c0c      	ldr	r4, [pc, #48]	@ (8002518 <__libc_init_array+0x44>)
 80024e8:	f000 f818 	bl	800251c <_init>
 80024ec:	1b64      	subs	r4, r4, r5
 80024ee:	10a4      	asrs	r4, r4, #2
 80024f0:	2600      	movs	r6, #0
 80024f2:	42a6      	cmp	r6, r4
 80024f4:	d105      	bne.n	8002502 <__libc_init_array+0x2e>
 80024f6:	bd70      	pop	{r4, r5, r6, pc}
 80024f8:	f855 3b04 	ldr.w	r3, [r5], #4
 80024fc:	4798      	blx	r3
 80024fe:	3601      	adds	r6, #1
 8002500:	e7ee      	b.n	80024e0 <__libc_init_array+0xc>
 8002502:	f855 3b04 	ldr.w	r3, [r5], #4
 8002506:	4798      	blx	r3
 8002508:	3601      	adds	r6, #1
 800250a:	e7f2      	b.n	80024f2 <__libc_init_array+0x1e>
 800250c:	08002584 	.word	0x08002584
 8002510:	08002584 	.word	0x08002584
 8002514:	08002584 	.word	0x08002584
 8002518:	08002588 	.word	0x08002588

0800251c <_init>:
 800251c:	b5f8      	push	{r3, r4, r5, r6, r7, lr}
 800251e:	bf00      	nop
 8002520:	bcf8      	pop	{r3, r4, r5, r6, r7}
 8002522:	bc08      	pop	{r3}
 8002524:	469e      	mov	lr, r3
 8002526:	4770      	bx	lr

08002528 <_fini>:
 8002528:	b5f8      	push	{r3, r4, r5, r6, r7, lr}
 800252a:	bf00      	nop
 800252c:	bcf8      	pop	{r3, r4, r5, r6, r7}
 800252e:	bc08      	pop	{r3}
 8002530:	469e      	mov	lr, r3
 8002532:	4770      	bx	lr
